(icmc.Bag
Bag
p1
(lp2
(lp3
S'version'
p4
aS'_cmSheetTab'
p5
aS'_aeSheetTab'
p6
aS'_autoTab'
p7
aS'_generalTab'
p8
aS'_simTab'
p9
aS'_extTab'
p10
aS'_filters'
p11
aS'_validUnits'
p12
aS'_itemTypes'
p13
aS'_columns'
p14
aS'_front'
p15
aS'_back'
p16
aS'_toolBars'
p17
aS'_printerProperties'
p18
aS'_geometry'
p19
aS'_treeRestore'
p20
aS'_sheetRestore'
p21
aS'_BatchSim'
p22
aa(dp23
g10
(dp24
S'title'
p25
S'Extraction'
p26
sS'minPlaneGapArea'
p27
I100
sS'enablePlaneExtraction'
p28
I0
sS'enableEtchFactor'
p29
I0
sS'enableCoPlanarReference'
p30
I0
sS'minGapLength'
p31
I10
ssg9
(dp32
S'useProjectLib'
p33
I1
sS'maxDistance'
p34
F0.5
sS'intrSimType'
p35
S'Lightning'
p36
sS'updateSignalIntegrity'
p37
I1
sS'exportFilterList'
p38
(lsS'hspiceOption'
p39
S'HspOverwrite'
p40
sS'updateSameBusCrossTalk'
p41
I0
sS'useProjectCache'
p42
I1
sS'maxLines'
p43
I1
sS'routerType'
p44
S'Calc'
p45
sS'uncoupledSimType'
p46
S'Sim'
p47
sS'criticalNets'
p48
I1
sS'minLength'
p49
I10
sS'incLosses'
p50
I1
sS'filterPropertyList'
p51
NsS'updateCrossTalk'
p52
I1
sS'useClassicFilters'
p53
I1
sg25
S'Sim & Calc'
sS'updateSIsimType'
p54
g45
sS'useSEROFilters'
p55
I0
sS'exportKeepXML'
p56
I1
ssg21
(dp57
S'selectedCells'
p58
(lsS'yPos'
p59
S''
sS'tabName'
p60
S''
sS'xPos'
p61
S''
ssg18
(dsg7
(dp62
S'defaultTLcutOff'
p63
S'default'
p64
sS'defaultX'
p65
F152
sS'defaultY'
p66
F152
sS'userTLcutOffLengthUnits'
p67
S'mm'
p68
sS'XTalkpc'
p69
I8
sS'stubCoeff'
p70
F0.10000000000000001
sS'defaultNames'
p71
(iBag
Bag
p72
(lp73
(lp74
S'Clock'
p75
aS'Bus'
p76
aS'Net'
p77
aa(dp78
g75
S''
sg77
S''
sg76
S''
sabsS'criticalityCoeff'
p79
F0.5
sS'dpNegEnd'
p80
S''
sS'userTLcutOffLength'
p81
F0.25
sS'numberPwrNetCaps'
p82
I20
sS'filterAutoPinPairs'
p83
I2
sg25
S'Automation'
p84
sS'boardSizeUnits'
p85
g68
sS'dpNegStart'
p86
S''
sS'OverShootpc'
p87
I8
sS'dpPosEnd'
p88
S''
sS'dpPosStart'
p89
S''
ssg8
(dp90
S'undoSize'
p91
I0
sS'enableFilters'
p92
I2
sS'lengthUnits'
p93
g68
sS'findIncFiltered'
p94
I2
sS'delayMode'
p95
S'Length'
p96
sS'nomLength'
p97
F100
sS'hideSinglePinNets'
p98
I1
sS'focusNewItems'
p99
I1
sS'enableViaBackdrilling'
p100
I0
sS'timeUnits'
p101
S'ps'
p102
sS'enableEnhancedVia'
p103
I0
sS'nomVelocity'
p104
F0.14999999999999999
sS'findIncSubItems'
p105
I1
sS'numScenLayers'
p106
I4
sg25
S'General'
p107
sS'nomImpedance'
p108
F50
sS'tidyDiffPairs'
p109
I1
sS'tidyEnets'
p110
I1
ssg4
F3.0609999999999999
sg20
(dp111
S'selected'
p112
(iBag
Bag
p113
(lp114
(lp115
a(dp116
absS'open'
p117
(lssg6
(dp118
g25
S'Sheet'
p119
sS'inheritFromSGs'
p120
I1
sS'colours'
p121
(dp122
S'compliance'
p123
S'#91FF91'
sS'warning'
p124
S'#FFAF51'
sS'failure'
p125
S'#FF6464'
ssS'tabs'
p126
(iBag
Bag
p127
(lp128
(lp129
S'Crosstalk'
p130
aa(dp131
g130
(dp132
S'remove'
p133
I0
sS'columns'
p134
(iBag
Bag
p135
(lp136
(lp137
S'Attribute Col'
p138
aa(dp139
g138
(dp140
g133
I0
sS'width'
p141
I20
sS'autoSize'
p142
I1
sS'dp'
p143
I3
sS'units'
p144
S'mA'
p145
ssabssabssg12
(iBag
Bag
p146
(lp147
(lp148
g144
aS'types'
p149
aa(dp150
g149
(iBag
Bag
p151
(lp152
(lp153
S''
aS'Frequency'
p154
aS'Impedance'
p155
aS'Time'
p156
aS'Inductance'
p157
aS'Potential'
p158
ag96
aS'Capacitance'
p159
aS'Current'
p160
aa(dp161
S''
(lp162
S''
asg159
(lp163
S'F'
aS'mF'
p164
aS'uF'
p165
aS'nF'
p166
aS'pF'
p167
asg155
(lp168
S'Ohms'
p169
aS'Ohm'
p170
asg156
(lp171
S's'
aS'ms'
p172
aS'us'
p173
aS'ns'
p174
ag102
asg157
(lp175
S'H'
aS'mH'
p176
aS'uH'
p177
aS'nH'
p178
aS'pH'
p179
asg154
(lp180
S'MHz'
p181
aS'GHz'
p182
aS'kHz'
p183
aS'Hz'
p184
asg96
(lp185
S'm'
aS'cm'
p186
ag68
aS'um'
p187
aS'in'
p188
aS'th'
p189
aS'mils'
p190
aS'dsu'
p191
asg158
(lp192
S'V'
aS'mV'
p193
asg160
(lp194
S'A'
ag145
asabsg144
(iBag
Bag
p195
(lp196
(lp197
S'pm'
p198
ag174
aS'pV'
p199
ag186
ag172
ag181
aS's'
aS'nV'
p200
ag187
ag173
aS'm'
ag191
aS'ml'
p201
ag68
aS'nm'
p202
ag183
ag102
ag184
aS'V'
aS'ds'
p203
ag165
ag179
ag164
ag188
ag177
ag167
ag193
ag169
ag178
ag166
ag176
aS'uV'
p204
aS'H'
ag170
aS'F'
ag189
ag190
ag145
ag182
aS'KHz'
p205
aS''
aS'A'
aa(dp206
g198
(dp207
S'multiplier'
p208
I10000
sg143
I0
sS'system'
p209
S'metric'
p210
sS'caption'
p211
g198
ssg174
(dp212
g208
F0.001
sg143
I0
sg209
S'NA'
p213
sg211
g174
ssg199
(dp214
g208
I1000000000
sg143
I0
sg209
g210
sg211
g199
ssg186
(dp215
g208
F9.9999999999999995e-007
sg143
I0
sg209
g210
sg211
g186
ssg172
(dp216
g208
F1.0000000000000001e-009
sg143
I0
sg209
g213
sg211
g172
ssg181
(dp217
g208
F9.9999999999999995e-007
sg143
I0
sg209
g213
sg211
g181
ssS's'
(dp218
g208
F9.9999999999999998e-013
sg143
I0
sg209
g213
sg211
S's'
ssg190
(dp219
g208
F0.00039370079999999998
sg143
I0
sg209
S'imperial'
p220
sg211
g190
ssg187
(dp221
g208
F0.01
sg143
I0
sg209
g210
sg211
g187
ssg173
(dp222
g208
F9.9999999999999995e-007
sg143
I0
sg209
g213
sg211
g173
ssS'm'
(dp223
g208
F1e-008
sg143
I0
sg209
g210
sg211
S'm'
ssg191
(dp224
g208
I1
sg143
I0
sg209
g210
sg211
g191
ssg201
(dp225
g208
F0.00039370079999999998
sg143
I0
sg209
g220
sg211
g201
ssg68
(dp226
g208
F1.0000000000000001e-005
sg143
I0
sg209
g210
sg211
g68
ssg202
(dp227
g208
I10
sg143
I0
sg209
g210
sg211
g202
ssg183
(dp228
g208
F0.001
sg143
I0
sg209
g213
sg211
g183
ssg102
(dp229
g208
I1
sg143
I0
sg209
g213
sg211
g102
ssg184
(dp230
g208
I1
sg143
I0
sg209
g213
sg211
g184
ssg200
(dp231
g208
I1000000
sg143
I0
sg209
g210
sg211
g200
ssg203
(dp232
g208
I1
sg143
I0
sg209
g210
sg211
g203
ssg165
(dp233
g208
F9.9999999999999995e-007
sg143
I0
sg209
g213
sg211
g165
ssg179
(dp234
g208
I1000
sg143
I0
sg209
g210
sg211
g179
ssg164
(dp235
g208
F1.0000000000000001e-009
sg143
I0
sg209
g213
sg211
g164
ssS'V'
(dp236
g208
F0.001
sg143
I0
sg209
g210
sg211
S'V'
ssg177
(dp237
g208
F0.001
sg143
I0
sg209
g210
sg211
g177
ssg167
(dp238
g208
I1
sg143
I0
sg209
g213
sg211
g167
ssg193
(dp239
g208
I1
sg143
I0
sg209
g210
sg211
g193
ssg169
(dp240
g208
I1
sg143
I0
sg209
g210
sg211
g170
ssg178
(dp241
g208
I1
sg143
I0
sg209
g210
sg211
g178
ssg166
(dp242
g208
F0.001
sg143
I0
sg209
g213
sg211
g166
ssg176
(dp243
g208
F9.9999999999999995e-007
sg143
I0
sg209
g210
sg211
g176
ssg204
(dp244
g208
I1000
sg143
I0
sg209
g210
sg211
g204
ssS'H'
(dp245
g208
F1.0000000000000001e-009
sg143
I0
sg209
g210
sg211
S'H'
ssg170
(dp246
g208
I1
sg143
I0
sg209
g210
sg211
g170
ssS'F'
(dp247
g208
F9.9999999999999998e-013
sg143
I0
sg209
g213
sg211
S'F'
ssg189
(dp248
g208
F0.00039370079999999998
sg143
I0
sg209
g220
sg211
S'thou'
p249
ssg188
(dp250
g208
F3.9370079999999998e-007
sg143
I0
sg209
g220
sg211
S'inches'
p251
ssg145
(dp252
g208
I1000
sg143
I0
sg209
g210
sg211
g145
ssg182
(dp253
g208
F1.0000000000000001e-009
sg143
I0
sg209
g213
sg211
g182
ssg205
(dp254
g208
F0.001
sg143
I0
sg209
g213
sg211
g183
ssS''
(dp255
g208
I1
sg143
I0
sg209
g210
sg211
S''
ssS'A'
(dp256
g208
I1
sg143
I0
sg209
g210
sg211
S'Amp'
p257
ssabsabsg17
(dp258
g25
S'toolbars'
p259
sS'file'
p260
S'2'
sS'tool'
p261
S'2'
sS'view'
p262
S'2'
ssg22
(dsg15
(dp263
S'file4'
p264
(dp265
g209
S''
sS'design'
p266
S''
sS'designVer'
p267
S''
sS'path'
p268
S''
sS'instance'
p269
S''
ssS'file5'
p270
(dp271
g209
S''
sg266
S''
sg267
S''
sg268
S''
sg269
S''
ssS'file6'
p272
(dp273
g209
S''
sg266
S''
sg267
S''
sg268
S''
sg269
S''
ssS'file7'
p274
(dp275
g209
S''
sg266
S''
sg267
S''
sg268
S''
sg269
S''
ssS'file0'
p276
(dp277
g209
S''
sg266
S''
sg267
S''
sg268
S''
sg269
S''
ssS'file1'
p278
(dp279
g209
S''
sg266
S''
sg267
S''
sg268
S''
sg269
S''
ssS'file2'
p280
(dp281
g209
S''
sg266
S''
sg267
S''
sg268
S''
sg269
S''
ssS'file3'
p282
(dp283
g209
S''
sg266
S''
sg267
S''
sg268
S''
sg269
S''
sssg11
(iBag
Bag
p284
(lp285
(lp286
a(dp287
absg14
(iBag
Bag
p288
(lp289
(lp290
S'Max crosstalk'
p291
aS'Max overshoot'
p292
aS'Min char Z (const)'
p293
aS'Max char Z (const)'
p294
aS'Min delay (time)'
p295
aS'Max delay (time)'
p296
aS'Max skew (time, const)'
p297
aS'Min relative delay (time, const)'
p298
aS'Max relative delay (time, const)'
p299
aS'Min Length (Len, const)'
p300
aS'Max Length (Len, const)'
p301
aS'Max skew (Len, const)'
p302
aS'Min relative delay (Len, const)'
p303
aS'Max relative delay (Len, const)'
p304
aS'Topology'
p305
aS'Stub length'
p306
aS'Max Pin Pair Vias'
p307
aS'E.F.'
p308
aS'Part Name'
p309
aS'Resistance'
p310
ag159
ag157
aS'ref_voltage'
p311
aS'critical'
p312
aS'Vendor'
p313
aS'Device'
p314
aS'Pin Model'
p315
aS'Input Model'
p316
aS'Output Model'
p317
aS'Connective Model'
p318
aS'No. of Pins'
p319
aS'Technology'
p320
aS'Stimulus'
p321
aS'pin_source'
p322
aS'EBD'
p323
aS'CBD'
p324
aS'MBconnection'
p325
aS'ExtPinName'
p326
aS'systemEnet'
p327
aS'systemPwrNet'
p328
aS'designEnet'
p329
aS'designPwrNet'
p330
aS'var_fitted'
p331
aS'NetKind'
p332
aS'imp_template'
p333
aS'DeviceType'
p334
aS'Source'
p335
aS'Status'
p336
aS'Min RSS crosstalk'
p337
aS'Max RSS crosstalk'
p338
aS'Min simple x-talk'
p339
aS'Max simple x-talk'
p340
aS'Min x-talk Contribution'
p341
aS'Max x-talk Contribution'
p342
aS'Overshoot - 1st Rise'
p343
aS'Overshoot Rise'
p344
aS'Undershoot - 1st Rise'
p345
aS'Undershoot Rise'
p346
aS'Overshoot - 1st Fall'
p347
aS'Overshoot Fall'
p348
aS'Undershoot - 1st Fall'
p349
aS'Undershoot Fall'
p350
aS'Monotonicity'
p351
aS'MonotonicityRise'
p352
aS'Min char Z (Result)'
p353
aS'Max char Z (Result)'
p354
aS'Min common Z (Result)'
p355
aS'Max common Z (Result)'
p356
aS'Min diff Z (Result)'
p357
aS'Max diff Z (Result)'
p358
aS'Min even Z (Result)'
p359
aS'Max even Z (Result)'
p360
aS'Min odd Z (Result)'
p361
aS'Max odd Z (Result)'
p362
aS'Min track width'
p363
aS'Max track width'
p364
aS'Minimum delay Rise'
p365
aS'Minimum delay Rise (Min)'
p366
aS'Minimum delay Rise (Max)'
p367
aS'Maximum delay Rise'
p368
aS'Maximum delay Rise (Min)'
p369
aS'Maximum delay Rise (Max)'
p370
aS'Delay (Rising Edge)'
p371
aS'Min Delay (Rising Edge)'
p372
aS'Max Delay (Rising Edge)'
p373
aS'Minimum delay Fall'
p374
aS'Minimum delay Fall (Min)'
p375
aS'Minimum delay Fall (Max)'
p376
aS'Maximum delay Fall'
p377
aS'Maximum delay Fall (Min)'
p378
aS'Maximum delay Fall (Max)'
p379
aS'Delay (Falling Edge)'
p380
aS'Min Delay (Falling Edge)'
p381
aS'Max Delay (Falling Edge)'
p382
aS'Settling Rise Time'
p383
aS'Settling Fall Time'
p384
aS'Max skew (time, result)'
p385
aS'Min relative delay (time, result)'
p386
aS'Max relative delay (time, result)'
p387
aS'Resonant Frequency'
p388
aS'Minimum Length(result)'
p389
aS'Maximum Length(result)'
p390
aS'Max skew (len, result)'
p391
aS'Min relative delay (len, result)'
p392
aS'Max relative delay (len, result)'
p393
aS'Min Settled Flight Time (Rise)'
p394
aS'Max Settled Flight Time (Rise)'
p395
aS'Maximum Settled Rise'
p396
aS'Min Settled Flight Time (Fall)'
p397
aS'Max Settled Flight Time (Fall)'
p398
aS'Maximum Settled Fall'
p399
aS'Maximum Settling Rise'
p400
aS'Maximum Settling Fall'
p401
aS'Max Voltage'
p402
aS'Min Voltage'
p403
aS'Top Line Voltage'
p404
aS'Bottom Line Voltage'
p405
aS'Min Slope (Fall)'
p406
aS'Max Slope (Fall)'
p407
aS'Min Slope (Rise)'
p408
aS'Max Slope (Rise)'
p409
aS'Falling Slope'
p410
aS'Rising Slope'
p411
aS'Nonmonoticity Swing Fall'
p412
aS'Nonmonoticity Swing Rise'
p413
aS'Switching Fall Time'
p414
aS'Switching Rise Time'
p415
aS'Rise Time'
p416
aS'Fall Time'
p417
aS'Max Pin Pair Vias (result)'
p418
aS'Total Capacitance (result)'
p419
aS'Capacitance of tracks (result)'
p420
aS'Capacitance of vias (result)'
p421
aS'Capacitance of testlands (result)'
p422
aa(dp423
g311
(dp424
S'readOnly'
p425
I0
sS'visible'
p426
I1
sS'type'
p427
S'Attribute'
p428
sS'defaultValue'
p429
NsS'comboBox'
p430
NsS'currentUnits'
p431
S'V'
sg25
g311
sS'modes'
p432
S'Both'
p433
sS'unitType'
p434
g158
sS'defaultWidth'
p435
I20
sS'validItems'
p436
(dp437
g77
(dp438
S'xtalk'
p439
I0
sS'layer'
p440
I0
sg425
I1
ssS'PNet'
p441
(dp442
g439
I0
sg440
I0
sg425
I0
ssssg299
(dp443
g425
I0
sg426
I1
sg427
S'Constraint'
p444
sg429
S'20'
p445
sg430
Nsg431
g102
sg25
S'Max relative\012delay'
p446
sg432
g156
sg434
g156
sg435
I40
sg436
(dp447
S'SkewGrp'
p448
(dp449
g439
I0
sg440
I0
sg425
I0
ssssg320
(dp450
g425
I1
sg426
I1
sg427
g428
sg429
Nsg430
Nsg431
S''
sg25
S'Fallback\012Technology'
sg432
g433
sg434
S''
sg435
I40
sg436
(dp451
S'DVS'
p452
(dp453
g439
I0
sg440
I0
sg425
I0
ssS'SysConnComp'
p454
(dp455
g439
I0
sg440
I0
sg425
I0
ssS'Part'
p456
(dp457
g439
I0
sg440
I0
sg425
I0
ssS'Comp'
p458
(dp459
g439
I0
sg440
I0
sg425
I0
ssssg319
(dp460
g425
I1
sg426
I1
sg427
g428
sg429
Nsg430
Nsg431
S''
sg25
g319
sg432
g433
sg434
S''
sg435
I40
sg436
(dp461
g456
(dp462
g439
I0
sg440
I0
sg425
I0
ssg454
(dp463
g439
I0
sg440
I0
sg425
I0
ssg458
(dp464
g439
I0
sg440
I0
sg425
I0
ssssg375
(dp465
g427
S'Result'
p466
sg431
g102
sg425
I0
sg426
I1
sg436
(dp467
S'DP'
p468
(dp469
g439
I0
sg440
I0
sg425
I0
ssg76
(dp470
g439
I0
sg440
I0
sg425
I0
ssS'Path'
p471
(dp472
g439
I0
sg440
I0
sg425
I0
ssS'SysEnet'
p473
(dp474
g439
I0
sg440
I0
sg425
I0
ssS'SysDiffPair'
p475
(dp476
g439
I0
sg440
I0
sg425
I0
ssg448
(dp477
g439
I0
sg440
I0
sg425
I0
ssS'ENet'
p478
(dp479
g439
I0
sg440
I0
sg425
I0
sssg429
S'10'
p480
sg430
NsS'fromSimulator'
p481
I1
sg25
S'Min Shortest\012Flight Time (Fall)'
sg432
g156
sg435
I40
sg434
g156
ssg293
(dp482
g425
I0
sg426
I1
sg427
g444
sg429
S'200'
p483
sg430
Nsg431
g170
sg25
S'Min Zo'
p484
sg432
g433
sg434
g155
sg435
I40
sg436
(dp485
g473
(dp486
g439
I0
sg440
I0
sg425
I0
ssg468
(dp487
g439
I0
sg440
I1
sg425
I0
ssg76
(dp488
g439
I0
sg440
I1
sg425
I0
ssS'NetC'
p489
(dp490
g439
I0
sg440
I1
sg425
I0
ssg77
(dp491
g439
I0
sg440
I1
sg425
I0
ssg475
(dp492
g439
I0
sg440
I0
sg425
I0
ssg478
(dp493
g439
I0
sg440
I1
sg425
I0
ssg452
(dp494
g439
I0
sg440
I1
sg425
I0
ssssg315
(dp495
g425
I1
sg426
I1
sg427
g428
sg429
Nsg430
Nsg431
S''
sg25
g315
sg432
g433
sg434
S''
sg435
I40
sg436
(dp496
S'PartPin'
p497
(dp498
g439
I0
sg440
I0
sg425
I0
ssS'Pin'
p499
(dp500
g439
I0
sg440
I0
sg425
I0
ssS'SysConnPin'
p501
(dp502
g439
I0
sg440
I0
sg425
I0
ssssg307
(dp503
g425
I0
sg426
I1
sg427
g444
sg429
Nsg430
Nsg431
S''
sg25
S'Max\012Pin Pair\012Vias'
p504
sg432
g433
sg434
S''
sg435
I40
sg436
(dp505
g478
(dp506
g439
I0
sg440
I0
sg425
I0
ssg468
(dp507
g439
I0
sg440
I0
sg425
I0
ssg489
(dp508
g439
I0
sg440
I0
sg425
I0
ssS'PP'
p509
(dp510
g439
I0
sg440
I0
sg425
I0
ssg76
(dp511
g439
I0
sg440
I0
sg425
I0
ssg448
(dp512
g439
I0
sg440
I0
sg425
I0
ssssg396
(dp513
g427
g466
sg431
g102
sg425
I0
sg426
I1
sg436
(dp514
g509
(dp515
g439
I0
sg440
I0
sg425
I0
ssS'sysEnetPinPair'
p516
(dp517
g439
I0
sg440
I0
sg425
I0
sssg429
g480
sg430
Nsg481
I1
sg25
S'Settled Flight\012Time (Rise)'
sg432
g156
sg435
I40
sg434
g156
ssg324
(dp518
g425
I1
sg426
I1
sg427
g428
sg429
Nsg430
Nsg431
S''
sg25
g324
sg432
g433
sg434
S''
sg435
I40
sg436
(dp519
g499
(dp520
g439
I0
sg440
I0
sg425
I1
ssS'Board'
p521
(dp522
g439
I0
sg440
I0
sg425
I1
ssg501
(dp523
g439
I0
sg440
I0
sg425
I1
ssg454
(dp524
g439
I0
sg440
I0
sg425
I1
ssS'SysConnect'
p525
(dp526
g439
I0
sg440
I0
sg425
I1
ssg458
(dp527
g439
I0
sg440
I0
sg425
I1
ssssg306
(dp528
g425
I0
sg426
I1
sg427
g444
sg429
g480
sg430
Nsg431
g68
sg25
g306
sg432
g433
sg434
g96
sg435
I40
sg436
(dp529
g478
(dp530
g439
I0
sg440
I0
sg425
I0
ssg452
(dp531
g439
I0
sg440
I0
sg425
I0
ssg489
(dp532
g439
I0
sg440
I0
sg425
I0
ssssg292
(dp533
g425
I0
sg426
I1
sg427
g444
sg429
S'400'
p534
sg430
Nsg431
g193
sg25
g292
sg432
g433
sg434
g158
sg435
I40
sg436
(dp535
g468
(dp536
g439
I0
sg440
I0
sg425
I0
ssg76
(dp537
g439
I0
sg440
I0
sg425
I0
ssg489
(dp538
g439
I0
sg440
I0
sg425
I0
ssg475
(dp539
g439
I0
sg440
I0
sg425
I0
ssg478
(dp540
g439
I0
sg440
I0
sg425
I0
ssg473
(dp541
g439
I0
sg440
I0
sg425
I0
ssg452
(dp542
g439
I0
sg440
I0
sg425
I0
ssssg362
(dp543
g427
g466
sg431
g169
sg425
I0
sg426
I1
sg436
(dp544
g468
(dp545
g439
I0
sg440
I1
sg425
I0
ssg76
(dp546
g439
I0
sg440
I1
sg425
I0
ssg475
(dp547
g439
I0
sg440
I0
sg425
I0
sssg429
g480
sg430
Nsg481
I0
sg25
S'Max\012Odd Z'
sg432
g433
sg435
I40
sg434
g155
ssg394
(dp548
g427
g466
sg431
g102
sg425
I0
sg426
I1
sg436
(dp549
g468
(dp550
g439
I0
sg440
I0
sg425
I0
ssg76
(dp551
g439
I0
sg440
I0
sg425
I0
ssg471
(dp552
g439
I0
sg440
I0
sg425
I0
ssg473
(dp553
g439
I0
sg440
I0
sg425
I0
ssg475
(dp554
g439
I0
sg440
I0
sg425
I0
ssg448
(dp555
g439
I0
sg440
I0
sg425
I0
ssg478
(dp556
g439
I0
sg440
I0
sg425
I0
sssg429
g480
sg430
Nsg481
I1
sg25
S'Min Settled\012Flight Time (Rise)'
sg432
g156
sg435
I40
sg434
g156
ssg303
(dp557
g425
I0
sg426
I1
sg427
g444
sg429
g480
sg430
Nsg431
g68
sg25
S'Min relative\012length'
p558
sg432
g96
sg434
g96
sg435
I40
sg436
(dp559
g448
(dp560
g439
I0
sg440
I0
sg425
I0
ssssg358
(dp561
g427
g466
sg431
g169
sg425
I0
sg426
I1
sg436
(dp562
g468
(dp563
g439
I0
sg440
I1
sg425
I0
ssg76
(dp564
g439
I0
sg440
I1
sg425
I0
ssg475
(dp565
g439
I0
sg440
I0
sg425
I0
sssg429
g480
sg430
Nsg481
I0
sg25
S'Max\012Differential Z'
sg432
g433
sg435
I40
sg434
g155
ssg343
(dp566
g427
g466
sg431
g193
sg425
I0
sg426
I1
sg436
(dp567
g468
(dp568
g439
I0
sg440
I0
sg425
I0
ssg516
(dp569
g439
I0
sg440
I0
sg425
I0
ssg76
(dp570
g439
I0
sg440
I0
sg425
I0
ssg478
(dp571
g439
I0
sg440
I0
sg425
I0
ssg509
(dp572
g439
I0
sg440
I0
sg425
I0
ssg475
(dp573
g439
I0
sg440
I0
sg425
I0
ssg448
(dp574
g439
I0
sg440
I0
sg425
I0
ssg473
(dp575
g439
I0
sg440
I0
sg425
I0
sssg429
g480
sg430
Nsg481
I1
sg25
S'1st Overshoot\012(Rising Edge)'
sg432
g433
sg435
I40
sg434
g158
ssg359
(dp576
g427
g466
sg431
g169
sg425
I0
sg426
I1
sg436
(dp577
g468
(dp578
g439
I0
sg440
I1
sg425
I0
ssg76
(dp579
g439
I0
sg440
I1
sg425
I0
ssg475
(dp580
g439
I0
sg440
I0
sg425
I0
sssg429
g480
sg430
Nsg481
I0
sg25
S'Min\012Even Z'
sg432
g433
sg435
I40
sg434
g155
ssg328
(dp581
g425
I1
sg426
I1
sg427
g428
sg429
Nsg430
Nsg431
S''
sg25
S'System\012Power Net'
sg432
g433
sg434
S''
sg435
I40
sg436
(dp582
g499
(dp583
g439
I0
sg440
I0
sg425
I1
ssg501
(dp584
g439
I0
sg440
I0
sg425
I1
ssssg325
(dp585
g425
I1
sg426
I1
sg427
g428
sg429
Nsg430
Nsg431
S''
sg25
S'Multi-Board\012Connection'
sg432
g433
sg434
S''
sg435
I40
sg436
(dp586
g499
(dp587
g439
I0
sg440
I0
sg425
I1
ssg521
(dp588
g439
I0
sg440
I0
sg425
I1
ssg501
(dp589
g439
I0
sg440
I0
sg425
I1
ssg454
(dp590
g439
I0
sg440
I0
sg425
I1
ssg525
(dp591
g439
I0
sg440
I0
sg425
I1
ssg458
(dp592
g439
I0
sg440
I0
sg425
I1
ssssg349
(dp593
g427
g466
sg431
g193
sg425
I0
sg426
I1
sg436
(dp594
g468
(dp595
g439
I0
sg440
I0
sg425
I0
ssg516
(dp596
g439
I0
sg440
I0
sg425
I0
ssg76
(dp597
g439
I0
sg440
I0
sg425
I0
ssg478
(dp598
g439
I0
sg440
I0
sg425
I0
ssg509
(dp599
g439
I0
sg440
I0
sg425
I0
ssg475
(dp600
g439
I0
sg440
I0
sg425
I0
ssg448
(dp601
g439
I0
sg440
I0
sg425
I0
ssg473
(dp602
g439
I0
sg440
I0
sg425
I0
sssg429
g480
sg430
Nsg481
I1
sg25
S'1st Undershoot\012(Falling Edge)'
sg432
g433
sg435
I40
sg434
g158
ssg395
(dp603
g427
g466
sg431
g102
sg425
I0
sg426
I1
sg436
(dp604
g468
(dp605
g439
I0
sg440
I0
sg425
I0
ssg76
(dp606
g439
I0
sg440
I0
sg425
I0
ssg471
(dp607
g439
I0
sg440
I0
sg425
I0
ssg473
(dp608
g439
I0
sg440
I0
sg425
I0
ssg475
(dp609
g439
I0
sg440
I0
sg425
I0
ssg448
(dp610
g439
I0
sg440
I0
sg425
I0
ssg478
(dp611
g439
I0
sg440
I0
sg425
I0
sssg429
g480
sg430
Nsg481
I1
sg25
S'Max Settled\012Flight Time (Rise)'
sg432
g156
sg435
I40
sg434
g156
ssg309
(dp612
g425
I1
sg426
I1
sg427
g428
sg429
Nsg430
Nsg431
S''
sg25
g309
sg432
g433
sg434
S''
sg435
I20
sg436
(dp613
g454
(dp614
g439
I0
sg440
I0
sg425
I1
ssg458
(dp615
g439
I0
sg440
I0
sg425
I1
ssssg406
(dp616
g427
g466
sg431
g102
sg425
I0
sg426
I1
sg436
(dp617
g468
(dp618
g439
I0
sg440
I0
sg425
I0
ssg471
(dp619
g439
I0
sg440
I0
sg425
I0
ssg473
(dp620
g439
I0
sg440
I0
sg425
I0
ssg76
(dp621
g439
I0
sg440
I0
sg425
I0
ssg448
(dp622
g439
I0
sg440
I0
sg425
I0
ssg475
(dp623
g439
I0
sg440
I0
sg425
I0
ssg478
(dp624
g439
I0
sg440
I0
sg425
I0
sssg429
g480
sg430
Nsg481
I1
sg25
S'Min Slope\012(Fall)'
sg432
g156
sg435
I40
sg434
g156
ssg321
(dp625
g425
I0
sg426
I1
sg427
g428
sg429
Nsg430
(dp626
g499
(lssg431
S''
sg25
g321
sg432
g433
sg434
S''
sg435
I40
sg436
(dp627
g499
(dp628
g439
I0
sg440
I0
sg425
I0
ssg501
(dp629
g439
I0
sg440
I0
sg425
I0
ssg489
(dp630
g439
I0
sg440
I0
sg425
I0
ssg76
(dp631
g439
I0
sg440
I0
sg425
I0
ssg478
(dp632
g439
I0
sg440
I0
sg425
I0
ssg452
(dp633
g439
I0
sg440
I0
sg425
I0
ssssg326
(dp634
g425
I0
sg426
I1
sg427
g428
sg429
Nsg430
Nsg431
S''
sg25
S'External\012Pin Name'
sg432
g433
sg434
S''
sg435
I40
sg436
(dp635
g501
(dp636
g439
I0
sg440
I0
sg425
I0
ssssg368
(dp637
g427
g466
sg431
g102
sg425
I0
sg426
I1
sg436
(dp638
g468
(dp639
g439
I0
sg440
I0
sg425
I0
ssg76
(dp640
g439
I0
sg440
I0
sg425
I0
ssg471
(dp641
g439
I0
sg440
I0
sg425
I0
ssg473
(dp642
g439
I0
sg440
I0
sg425
I0
ssg475
(dp643
g439
I0
sg440
I0
sg425
I0
ssg448
(dp644
g439
I0
sg440
I0
sg425
I0
ssg478
(dp645
g439
I0
sg440
I0
sg425
I0
sssg429
g480
sg430
Nsg481
I1
sg25
S'Max Typical\012Flight Time (Rise)'
sg432
g156
sg435
I40
sg434
g156
ssg407
(dp646
g427
g466
sg431
g102
sg425
I0
sg426
I1
sg436
(dp647
g468
(dp648
g439
I0
sg440
I0
sg425
I0
ssg471
(dp649
g439
I0
sg440
I0
sg425
I0
ssg473
(dp650
g439
I0
sg440
I0
sg425
I0
ssg76
(dp651
g439
I0
sg440
I0
sg425
I0
ssg448
(dp652
g439
I0
sg440
I0
sg425
I0
ssg475
(dp653
g439
I0
sg440
I0
sg425
I0
ssg478
(dp654
g439
I0
sg440
I0
sg425
I0
sssg429
g480
sg430
Nsg481
I1
sg25
S'Max Slope\012(Fall)'
sg432
g156
sg435
I40
sg434
g156
ssg339
(dp655
g427
g466
sg431
g193
sg425
I0
sg426
I1
sg436
(dp656
g478
(dp657
g439
I1
sg440
I0
sg425
I0
ssg468
(dp658
g439
I0
sg440
I0
sg425
I0
ssg76
(dp659
g439
I0
sg440
I0
sg425
I0
ssg473
(dp660
g439
I1
sg440
I0
sg425
I0
ssg475
(dp661
g439
I0
sg440
I0
sg425
I0
ssg448
(dp662
g439
I0
sg440
I0
sg425
I0
sssg429
g480
sg430
Nsg481
I0
sg25
S'Min simple\012crosstalk'
sg432
g433
sg435
I40
sg434
g158
ssg348
(dp663
g427
g466
sg431
g193
sg425
I0
sg426
I1
sg436
(dp664
g468
(dp665
g439
I0
sg440
I0
sg425
I0
ssg516
(dp666
g439
I0
sg440
I0
sg425
I0
ssg76
(dp667
g439
I0
sg440
I0
sg425
I0
ssg478
(dp668
g439
I0
sg440
I0
sg425
I0
ssg509
(dp669
g439
I0
sg440
I0
sg425
I0
ssg475
(dp670
g439
I0
sg440
I0
sg425
I0
ssg448
(dp671
g439
I0
sg440
I0
sg425
I0
ssg473
(dp672
g439
I0
sg440
I0
sg425
I0
sssg429
g480
sg430
Nsg481
I1
sg25
S'Overshoot\012(Falling Edge)'
sg432
g433
sg435
I40
sg434
g158
ssg329
(dp673
g425
I1
sg426
I1
sg427
g428
sg429
Nsg430
Nsg431
S''
sg25
S'Design\012Electrical Net'
sg432
g433
sg434
S''
sg435
I40
sg436
(dp674
g499
(dp675
g439
I0
sg440
I0
sg425
I1
ssg501
(dp676
g439
I0
sg440
I0
sg425
I1
ssssg416
(dp677
g427
g466
sg431
g102
sg425
I0
sg426
I1
sg436
(dp678
g509
(dp679
g439
I0
sg440
I0
sg425
I0
ssg516
(dp680
g439
I0
sg440
I0
sg425
I0
sssg429
g480
sg430
Nsg481
I1
sg25
g416
sg432
g156
sg435
I40
sg434
g156
ssg392
(dp681
g427
g466
sg431
g68
sg425
I0
sg426
I1
sg436
(dp682
g448
(dp683
g439
I0
sg440
I0
sg425
I0
sssg429
g480
sg430
Nsg481
I0
sg25
g558
sg432
g96
sg435
I40
sg434
g96
ssg356
(dp684
g427
g466
sg431
g169
sg425
I0
sg426
I1
sg436
(dp685
g468
(dp686
g439
I0
sg440
I1
sg425
I0
ssg76
(dp687
g439
I0
sg440
I1
sg425
I0
ssg475
(dp688
g439
I0
sg440
I0
sg425
I0
sssg429
g480
sg430
Nsg481
I0
sg25
S'Max\012Common Z'
sg432
g433
sg435
I40
sg434
g155
ssg312
(dp689
g425
I1
sg426
I0
sg427
g428
sg429
Nsg430
Nsg431
S''
sg25
g312
sg432
g433
sg434
S''
sg435
I20
sg436
(dp690
g478
(dp691
g439
I0
sg440
I0
sg425
I1
ssssg376
(dp692
g427
g466
sg431
g102
sg425
I0
sg426
I1
sg436
(dp693
g468
(dp694
g439
I0
sg440
I0
sg425
I0
ssg76
(dp695
g439
I0
sg440
I0
sg425
I0
ssg471
(dp696
g439
I0
sg440
I0
sg425
I0
ssg473
(dp697
g439
I0
sg440
I0
sg425
I0
ssg475
(dp698
g439
I0
sg440
I0
sg425
I0
ssg448
(dp699
g439
I0
sg440
I0
sg425
I0
ssg478
(dp700
g439
I0
sg440
I0
sg425
I0
sssg429
g480
sg430
Nsg481
I1
sg25
S'Min Longest\012Flight Time (Fall)'
sg432
g156
sg435
I40
sg434
g156
ssg294
(dp701
g425
I0
sg426
I1
sg427
g444
sg429
g534
sg430
Nsg431
g170
sg25
S'Max Zo'
p702
sg432
g433
sg434
g155
sg435
I40
sg436
(dp703
g473
(dp704
g439
I0
sg440
I0
sg425
I0
ssg468
(dp705
g439
I0
sg440
I1
sg425
I0
ssg76
(dp706
g439
I0
sg440
I1
sg425
I0
ssg489
(dp707
g439
I0
sg440
I1
sg425
I0
ssg77
(dp708
g439
I0
sg440
I1
sg425
I0
ssg475
(dp709
g439
I0
sg440
I0
sg425
I0
ssg478
(dp710
g439
I0
sg440
I1
sg425
I0
ssg452
(dp711
g439
I0
sg440
I1
sg425
I0
ssssg403
(dp712
g427
g466
sg431
g193
sg425
I0
sg426
I1
sg436
(dp713
g509
(dp714
g439
I0
sg440
I0
sg425
I0
ssg516
(dp715
g439
I0
sg440
I0
sg425
I0
sssg429
g480
sg430
Nsg481
I1
sg25
g403
sg432
g156
sg435
I40
sg434
g158
ssg397
(dp716
g427
g466
sg431
g102
sg425
I0
sg426
I1
sg436
(dp717
g468
(dp718
g439
I0
sg440
I0
sg425
I0
ssg76
(dp719
g439
I0
sg440
I0
sg425
I0
ssg471
(dp720
g439
I0
sg440
I0
sg425
I0
ssg473
(dp721
g439
I0
sg440
I0
sg425
I0
ssg475
(dp722
g439
I0
sg440
I0
sg425
I0
ssg448
(dp723
g439
I0
sg440
I0
sg425
I0
ssg478
(dp724
g439
I0
sg440
I0
sg425
I0
sssg429
g480
sg430
Nsg481
I1
sg25
S'Min Settled\012Flight Time (Fall)'
sg432
g156
sg435
I40
sg434
g156
ssg355
(dp725
g427
g466
sg431
g169
sg425
I0
sg426
I1
sg436
(dp726
g468
(dp727
g439
I0
sg440
I1
sg425
I0
ssg76
(dp728
g439
I0
sg440
I1
sg425
I0
ssg475
(dp729
g439
I0
sg440
I0
sg425
I0
sssg429
g480
sg430
Nsg481
I0
sg25
S'Min\012Common Z'
sg432
g433
sg435
I40
sg434
g155
ssg412
(dp730
g427
g466
sg431
g193
sg425
I0
sg426
I0
sg436
(dp731
g509
(dp732
g439
I0
sg440
I0
sg425
I0
ssg516
(dp733
g439
I0
sg440
I0
sg425
I0
sssg429
g480
sg430
Nsg481
I1
sg25
S'Nonmonoticity\012Swing (Fall)'
sg432
g156
sg435
I40
sg434
g158
ssg422
(dp734
g427
g466
sg431
g167
sg425
I0
sg426
I1
sg436
(dp735
g77
(dp736
g439
I0
sg440
I1
sg425
I0
sssg429
Nsg430
Nsg481
I0
sg25
S'Capacitance\012of testlands'
sg432
g433
sg435
I20
sg434
g159
ssg420
(dp737
g427
g466
sg431
g167
sg425
I0
sg426
I1
sg436
(dp738
g77
(dp739
g439
I0
sg440
I1
sg425
I0
sssg429
Nsg430
Nsg481
I0
sg25
S'Capacitance\012of tracks'
sg432
g433
sg435
I20
sg434
g159
ssg301
(dp740
g425
I0
sg426
I1
sg427
g444
sg429
g445
sg430
Nsg431
g68
sg25
S'Max Length'
p741
sg432
g96
sg434
g96
sg435
I40
sg436
(dp742
g468
(dp743
g439
I0
sg440
I0
sg425
I0
ssg489
(dp744
g439
I0
sg440
I0
sg425
I0
ssg471
(dp745
g439
I0
sg440
I0
sg425
I0
ssg473
(dp746
g439
I0
sg440
I0
sg425
I0
ssg76
(dp747
g439
I0
sg440
I0
sg425
I0
ssg478
(dp748
g439
I0
sg440
I0
sg425
I0
ssg475
(dp749
g439
I0
sg440
I0
sg425
I0
ssg448
(dp750
g439
I0
sg440
I0
sg425
I0
ssg509
(dp751
g439
I0
sg440
I0
sg425
I0
ssg452
(dp752
g439
I0
sg440
I0
sg425
I0
ssssg313
(dp753
g425
I1
sg426
I1
sg427
g428
sg429
Nsg430
Nsg431
S''
sg25
g313
sg432
g433
sg434
S''
sg435
I40
sg436
(dp754
g456
(dp755
g439
I0
sg440
I0
sg425
I0
ssg454
(dp756
g439
I0
sg440
I0
sg425
I0
ssg458
(dp757
g439
I0
sg440
I0
sg425
I0
ssssg404
(dp758
g427
g466
sg431
g193
sg425
I0
sg426
I1
sg436
(dp759
g509
(dp760
g439
I0
sg440
I0
sg425
I0
ssg516
(dp761
g439
I0
sg440
I0
sg425
I0
sssg429
g480
sg430
Nsg481
I1
sg25
S'Top Line\012Voltage'
sg432
g156
sg435
I40
sg434
g158
ssg417
(dp762
g427
g466
sg431
g102
sg425
I0
sg426
I1
sg436
(dp763
g509
(dp764
g439
I0
sg440
I0
sg425
I0
ssg516
(dp765
g439
I0
sg440
I0
sg425
I0
sssg429
g480
sg430
Nsg481
I1
sg25
g417
sg432
g156
sg435
I40
sg434
g156
ssg344
(dp766
g427
g466
sg431
g193
sg425
I0
sg426
I1
sg436
(dp767
g468
(dp768
g439
I0
sg440
I0
sg425
I0
ssg516
(dp769
g439
I0
sg440
I0
sg425
I0
ssg76
(dp770
g439
I0
sg440
I0
sg425
I0
ssg478
(dp771
g439
I0
sg440
I0
sg425
I0
ssg509
(dp772
g439
I0
sg440
I0
sg425
I0
ssg475
(dp773
g439
I0
sg440
I0
sg425
I0
ssg448
(dp774
g439
I0
sg440
I0
sg425
I0
ssg473
(dp775
g439
I0
sg440
I0
sg425
I0
sssg429
g480
sg430
Nsg481
I1
sg25
S'Overshoot\012(Rising Edge)'
sg432
g433
sg435
I40
sg434
g158
ssg342
(dp776
g427
g466
sg431
g193
sg425
I0
sg426
I1
sg436
(dp777
g473
(dp778
g439
I1
sg440
I0
sg425
I0
ssg478
(dp779
g439
I1
sg440
I0
sg425
I0
sssg429
g480
sg430
Nsg481
I0
sg25
S'Max crosstalk\012Contribution'
sg432
g433
sg435
I40
sg434
g158
ssg296
(dp780
g425
I0
sg426
I1
sg427
g444
sg429
g445
sg430
Nsg431
g102
sg25
S'Max delay'
sg432
g156
sg434
g156
sg435
I40
sg436
(dp781
g468
(dp782
g439
I0
sg440
I0
sg425
I0
ssg489
(dp783
g439
I0
sg440
I0
sg425
I0
ssg471
(dp784
g439
I0
sg440
I0
sg425
I0
ssg473
(dp785
g439
I0
sg440
I0
sg425
I0
ssg76
(dp786
g439
I0
sg440
I0
sg425
I0
ssg478
(dp787
g439
I0
sg440
I0
sg425
I0
ssg475
(dp788
g439
I0
sg440
I0
sg425
I0
ssg448
(dp789
g439
I0
sg440
I0
sg425
I0
ssg509
(dp790
g439
I0
sg440
I0
sg425
I0
ssg452
(dp791
g439
I0
sg440
I0
sg425
I0
ssssg385
(dp792
g427
g466
sg431
g102
sg425
I0
sg426
I1
sg436
(dp793
g468
(dp794
g439
I0
sg440
I0
sg425
I0
ssg76
(dp795
g439
I0
sg440
I0
sg425
I0
ssg471
(dp796
g439
I0
sg440
I0
sg425
I0
ssg473
(dp797
g439
I0
sg440
I0
sg425
I0
ssg475
(dp798
g439
I0
sg440
I0
sg425
I0
ssg448
(dp799
g439
I0
sg440
I0
sg425
I0
ssg478
(dp800
g439
I0
sg440
I0
sg425
I0
sssg429
g480
sg430
Nsg481
I1
sg25
S'Max skew'
p801
sg432
g156
sg435
I40
sg434
g156
ssg330
(dp802
g425
I1
sg426
I1
sg427
g428
sg429
Nsg430
Nsg431
S''
sg25
S'Design\012Power Net'
sg432
g433
sg434
S''
sg435
I40
sg436
(dp803
g499
(dp804
g439
I0
sg440
I0
sg425
I1
ssg501
(dp805
g439
I0
sg440
I0
sg425
I1
ssssg291
(dp806
g425
I0
sg426
I1
sg427
g444
sg429
g534
sg430
Nsg431
g193
sg25
g291
sg432
g433
sg434
g158
sg435
I40
sg436
(dp807
g468
(dp808
g439
I0
sg440
I0
sg425
I0
ssg76
(dp809
g439
I0
sg440
I0
sg425
I0
ssg489
(dp810
g439
I0
sg440
I0
sg425
I0
ssg475
(dp811
g439
I0
sg440
I0
sg425
I0
ssg478
(dp812
g439
I0
sg440
I0
sg425
I0
ssg473
(dp813
g439
I0
sg440
I0
sg425
I0
ssg452
(dp814
g439
I0
sg440
I0
sg425
I0
ssssg399
(dp815
g427
g466
sg431
g102
sg425
I0
sg426
I1
sg436
(dp816
g509
(dp817
g439
I0
sg440
I0
sg425
I0
ssg516
(dp818
g439
I0
sg440
I0
sg425
I0
sssg429
g480
sg430
Nsg481
I1
sg25
S'Settled Flight\012Time (Fall)'
sg432
g156
sg435
I40
sg434
g156
ssg335
(dp819
g425
I1
sg426
I1
sg427
S'Metadata'
p820
sg429
Nsg430
Nsg431
S''
sg25
g335
sg432
g433
sg434
S''
sg435
I40
sg436
(dp821
g454
(dp822
g439
I0
sg440
I0
sg425
I0
ssg501
(dp823
g439
I0
sg440
I0
sg425
I0
ssg497
(dp824
g439
I0
sg440
I0
sg425
I0
ssg458
(dp825
g439
I0
sg440
I0
sg425
I0
ssg499
(dp826
g439
I0
sg440
I0
sg425
I0
ssg456
(dp827
g439
I0
sg440
I0
sg425
I0
ssS'ConnElem'
p828
(dp829
g439
I0
sg440
I0
sg425
I0
ssssg378
(dp830
g427
g466
sg431
g102
sg425
I0
sg426
I1
sg436
(dp831
g468
(dp832
g439
I0
sg440
I0
sg425
I0
ssg76
(dp833
g439
I0
sg440
I0
sg425
I0
ssg471
(dp834
g439
I0
sg440
I0
sg425
I0
ssg473
(dp835
g439
I0
sg440
I0
sg425
I0
ssg475
(dp836
g439
I0
sg440
I0
sg425
I0
ssg448
(dp837
g439
I0
sg440
I0
sg425
I0
ssg478
(dp838
g439
I0
sg440
I0
sg425
I0
sssg429
g480
sg430
Nsg481
I1
sg25
S'Max Shortest\012Flight Time (Fall)'
sg432
g156
sg435
I40
sg434
g156
ssg331
(dp839
g425
I1
sg426
I0
sg427
g428
sg429
Nsg430
Nsg431
S''
sg25
g331
sg432
g433
sg434
S''
sg435
I10
sg436
(dp840
g458
(dp841
g439
I0
sg440
I0
sg425
I1
ssssg387
(dp842
g427
g466
sg431
g102
sg425
I0
sg426
I1
sg436
(dp843
g448
(dp844
g439
I0
sg440
I0
sg425
I0
sssg429
g480
sg430
Nsg481
I1
sg25
g446
sg432
g156
sg435
I40
sg434
g156
ssg323
(dp845
g425
I1
sg426
I0
sg427
g428
sg429
Nsg430
Nsg431
S''
sg25
g323
sg432
g433
sg434
S''
sg435
I40
sg436
(dp846
g458
(dp847
g439
I0
sg440
I0
sg425
I1
ssssg379
(dp848
g427
g466
sg431
g102
sg425
I0
sg426
I1
sg436
(dp849
g468
(dp850
g439
I0
sg440
I0
sg425
I0
ssg76
(dp851
g439
I0
sg440
I0
sg425
I0
ssg471
(dp852
g439
I0
sg440
I0
sg425
I0
ssg473
(dp853
g439
I0
sg440
I0
sg425
I0
ssg475
(dp854
g439
I0
sg440
I0
sg425
I0
ssg448
(dp855
g439
I0
sg440
I0
sg425
I0
ssg478
(dp856
g439
I0
sg440
I0
sg425
I0
sssg429
g480
sg430
Nsg481
I1
sg25
S'Max Longest\012Flight Time (Fall)'
sg432
g156
sg435
I40
sg434
g156
ssg159
(dp857
g425
I0
sg426
I1
sg427
g428
sg429
Nsg430
Nsg431
g167
sg25
g159
sg432
g433
sg434
S''
sg435
I20
sg436
(dp858
g456
(dp859
g439
I0
sg440
I0
sg425
I1
ssg499
(dp860
g439
I0
sg440
I0
sg425
I1
ssg497
(dp861
g439
I0
sg440
I0
sg425
I1
ssg454
(dp862
g439
I0
sg440
I0
sg425
I0
ssg458
(dp863
g439
I0
sg440
I0
sg425
I0
ssg828
(dp864
g439
I0
sg440
I0
sg425
I1
ssssg298
(dp865
g425
I0
sg426
I1
sg427
g444
sg429
g445
sg430
Nsg431
g102
sg25
S'Min relative\012delay'
p866
sg432
g156
sg434
g156
sg435
I40
sg436
(dp867
g448
(dp868
g439
I0
sg440
I0
sg425
I0
ssssg316
(dp869
g425
I1
sg426
I1
sg427
g428
sg429
Nsg430
Nsg431
S''
sg25
g316
sg432
g433
sg434
S''
sg435
I40
sg436
(dp870
g497
(dp871
g439
I0
sg440
I0
sg425
I0
ssg499
(dp872
g439
I0
sg440
I0
sg425
I0
ssg501
(dp873
g439
I0
sg440
I0
sg425
I0
ssssg327
(dp874
g425
I1
sg426
I1
sg427
g428
sg429
Nsg430
Nsg431
S''
sg25
S'System\012Electrical Net'
sg432
g433
sg434
S''
sg435
I40
sg436
(dp875
g499
(dp876
g439
I0
sg440
I0
sg425
I1
ssg501
(dp877
g439
I0
sg440
I0
sg425
I1
ssssg391
(dp878
g427
g466
sg431
g68
sg425
I0
sg426
I1
sg436
(dp879
g468
(dp880
g439
I0
sg440
I0
sg425
I0
ssg76
(dp881
g439
I0
sg440
I0
sg425
I0
ssg471
(dp882
g439
I0
sg440
I0
sg425
I0
ssg473
(dp883
g439
I0
sg440
I0
sg425
I0
ssg475
(dp884
g439
I0
sg440
I0
sg425
I0
ssg448
(dp885
g439
I0
sg440
I0
sg425
I0
ssg478
(dp886
g439
I0
sg440
I0
sg425
I0
sssg429
g480
sg430
Nsg481
I0
sg25
g801
sg432
g96
sg435
I40
sg434
g96
ssg380
(dp887
g427
g466
sg431
g102
sg425
I0
sg426
I1
sg436
(dp888
g509
(dp889
g439
I0
sg440
I0
sg425
I0
ssg516
(dp890
g439
I0
sg440
I0
sg425
I0
sssg429
g480
sg430
Nsg481
I1
sg25
S'Typical Flight\012Time (Fall)'
sg432
g156
sg435
I40
sg434
g156
ssg345
(dp891
g427
g466
sg431
g193
sg425
I0
sg426
I1
sg436
(dp892
g468
(dp893
g439
I0
sg440
I0
sg425
I0
ssg516
(dp894
g439
I0
sg440
I0
sg425
I0
ssg76
(dp895
g439
I0
sg440
I0
sg425
I0
ssg478
(dp896
g439
I0
sg440
I0
sg425
I0
ssg509
(dp897
g439
I0
sg440
I0
sg425
I0
ssg475
(dp898
g439
I0
sg440
I0
sg425
I0
ssg448
(dp899
g439
I0
sg440
I0
sg425
I0
ssg473
(dp900
g439
I0
sg440
I0
sg425
I0
sssg429
g480
sg430
Nsg481
I1
sg25
S'1st Undershoot\012(Rising Edge)'
sg432
g433
sg435
I40
sg434
g158
ssg373
(dp901
g427
g466
sg431
g102
sg425
I0
sg426
I1
sg436
(dp902
g509
(dp903
g439
I0
sg440
I0
sg425
I0
ssg516
(dp904
g439
I0
sg440
I0
sg425
I0
sssg429
g480
sg430
Nsg481
I1
sg25
S'Longest Flight\012Time (Rise)'
sg432
g156
sg435
I40
sg434
g156
ssg310
(dp905
g425
I0
sg426
I1
sg427
g428
sg429
Nsg430
Nsg431
g169
sg25
g310
sg432
g433
sg434
S''
sg435
I20
sg436
(dp906
g456
(dp907
g439
I0
sg440
I0
sg425
I1
ssg499
(dp908
g439
I0
sg440
I0
sg425
I1
ssg497
(dp909
g439
I0
sg440
I0
sg425
I1
ssg454
(dp910
g439
I0
sg440
I0
sg425
I0
ssg458
(dp911
g439
I0
sg440
I0
sg425
I0
ssg828
(dp912
g439
I0
sg440
I0
sg425
I1
ssssg338
(dp913
g427
g466
sg431
g193
sg425
I0
sg426
I1
sg436
(dp914
g478
(dp915
g439
I1
sg440
I0
sg425
I0
ssg468
(dp916
g439
I0
sg440
I0
sg425
I0
ssg76
(dp917
g439
I0
sg440
I0
sg425
I0
ssg473
(dp918
g439
I1
sg440
I0
sg425
I0
ssg475
(dp919
g439
I0
sg440
I0
sg425
I0
ssg448
(dp920
g439
I0
sg440
I0
sg425
I0
sssg429
g480
sg430
Nsg481
I0
sg25
S'Max RSS\012crosstalk'
sg432
g433
sg435
I40
sg434
g158
ssg295
(dp921
g425
I0
sg426
I1
sg427
g444
sg429
g480
sg430
Nsg431
g102
sg25
S'Min delay'
sg432
g156
sg434
g156
sg435
I40
sg436
(dp922
g468
(dp923
g439
I0
sg440
I0
sg425
I0
ssg489
(dp924
g439
I0
sg440
I0
sg425
I0
ssg471
(dp925
g439
I0
sg440
I0
sg425
I0
ssg473
(dp926
g439
I0
sg440
I0
sg425
I0
ssg76
(dp927
g439
I0
sg440
I0
sg425
I0
ssg478
(dp928
g439
I0
sg440
I0
sg425
I0
ssg475
(dp929
g439
I0
sg440
I0
sg425
I0
ssg448
(dp930
g439
I0
sg440
I0
sg425
I0
ssg509
(dp931
g439
I0
sg440
I0
sg425
I0
ssg452
(dp932
g439
I0
sg440
I0
sg425
I0
ssssg304
(dp933
g425
I0
sg426
I1
sg427
g444
sg429
g480
sg430
Nsg431
g68
sg25
S'Max relative\012length'
p934
sg432
g96
sg434
g96
sg435
I40
sg436
(dp935
g448
(dp936
g439
I0
sg440
I0
sg425
I0
ssssg369
(dp937
g427
g466
sg431
g102
sg425
I0
sg426
I1
sg436
(dp938
g468
(dp939
g439
I0
sg440
I0
sg425
I0
ssg76
(dp940
g439
I0
sg440
I0
sg425
I0
ssg471
(dp941
g439
I0
sg440
I0
sg425
I0
ssg473
(dp942
g439
I0
sg440
I0
sg425
I0
ssg475
(dp943
g439
I0
sg440
I0
sg425
I0
ssg448
(dp944
g439
I0
sg440
I0
sg425
I0
ssg478
(dp945
g439
I0
sg440
I0
sg425
I0
sssg429
g480
sg430
Nsg481
I1
sg25
S'Max Shortest\012Flight Time (Rise)'
sg432
g156
sg435
I40
sg434
g156
ssg418
(dp946
g427
g466
sg431
S''
sg425
I0
sg426
I1
sg436
(dp947
g478
(dp948
g439
I0
sg440
I0
sg425
I0
ssg468
(dp949
g439
I0
sg440
I0
sg425
I0
ssg489
(dp950
g439
I0
sg440
I0
sg425
I0
ssg509
(dp951
g439
I0
sg440
I0
sg425
I0
ssg76
(dp952
g439
I0
sg440
I0
sg425
I0
ssg448
(dp953
g439
I0
sg440
I0
sg425
I0
sssg429
g480
sg430
Nsg481
I1
sg25
g504
sg432
g433
sg435
I40
sg434
S''
ssg332
(dp954
g425
I1
sg426
I0
sg427
g428
sg429
Nsg430
Nsg431
S''
sg25
S'Net Kind'
sg432
g433
sg434
S''
sg435
I10
sg436
(dp955
g77
(dp956
g439
I0
sg440
I0
sg425
I1
ssg441
(dp957
g439
I0
sg440
I0
sg425
I1
ssssg318
(dp958
g425
I1
sg426
I1
sg427
g428
sg429
Nsg430
Nsg431
S''
sg25
g318
sg432
g433
sg434
S''
sg435
I40
sg436
(dp959
g497
(dp960
g439
I0
sg440
I0
sg425
I0
ssg499
(dp961
g439
I0
sg440
I0
sg425
I0
ssg828
(dp962
g439
I0
sg440
I0
sg425
I0
ssssg414
(dp963
g427
g466
sg431
g102
sg425
I0
sg426
I0
sg436
(dp964
g509
(dp965
g439
I0
sg440
I0
sg425
I0
ssg516
(dp966
g439
I0
sg440
I0
sg425
I0
sssg429
g480
sg430
Nsg481
I1
sg25
S'Switching\012Fall Time'
sg432
g156
sg435
I40
sg434
g156
ssg388
(dp967
g427
g466
sg431
g181
sg425
I0
sg426
I1
sg436
(dp968
g473
(dp969
g439
I0
sg440
I0
sg425
I0
ssg478
(dp970
g439
I0
sg440
I0
sg425
I0
sssg429
g480
sg430
Nsg481
I1
sg25
S'Resonant\012Frequency'
sg432
g433
sg435
I40
sg434
g154
ssg347
(dp971
g427
g466
sg431
g193
sg425
I0
sg426
I1
sg436
(dp972
g468
(dp973
g439
I0
sg440
I0
sg425
I0
ssg516
(dp974
g439
I0
sg440
I0
sg425
I0
ssg76
(dp975
g439
I0
sg440
I0
sg425
I0
ssg478
(dp976
g439
I0
sg440
I0
sg425
I0
ssg509
(dp977
g439
I0
sg440
I0
sg425
I0
ssg475
(dp978
g439
I0
sg440
I0
sg425
I0
ssg448
(dp979
g439
I0
sg440
I0
sg425
I0
ssg473
(dp980
g439
I0
sg440
I0
sg425
I0
sssg429
g480
sg430
Nsg481
I1
sg25
S'1st Overshoot\012(Falling Edge)'
sg432
g433
sg435
I40
sg434
g158
ssg334
(dp981
g425
I1
sg426
I1
sg427
g820
sg429
Nsg430
Nsg431
S''
sg25
g334
sg432
g433
sg434
S''
sg435
I40
sg436
(dp982
g456
(dp983
g439
I0
sg440
I0
sg425
I0
ssg458
(dp984
g439
I0
sg440
I0
sg425
I0
ssssg346
(dp985
g427
g466
sg431
g193
sg425
I0
sg426
I1
sg436
(dp986
g468
(dp987
g439
I0
sg440
I0
sg425
I0
ssg516
(dp988
g439
I0
sg440
I0
sg425
I0
ssg76
(dp989
g439
I0
sg440
I0
sg425
I0
ssg478
(dp990
g439
I0
sg440
I0
sg425
I0
ssg509
(dp991
g439
I0
sg440
I0
sg425
I0
ssg475
(dp992
g439
I0
sg440
I0
sg425
I0
ssg448
(dp993
g439
I0
sg440
I0
sg425
I0
ssg473
(dp994
g439
I0
sg440
I0
sg425
I0
sssg429
g480
sg430
Nsg481
I1
sg25
S'Undershoot\012(Rising Edge)'
sg432
g433
sg435
I40
sg434
g158
ssg400
(dp995
g427
g466
sg431
g102
sg425
I0
sg426
I1
sg436
(dp996
g468
(dp997
g439
I0
sg440
I0
sg425
I0
ssg76
(dp998
g439
I0
sg440
I0
sg425
I0
ssg516
(dp999
g439
I0
sg440
I0
sg425
I0
ssg473
(dp1000
g439
I0
sg440
I0
sg425
I0
ssg471
(dp1001
g439
I0
sg440
I0
sg425
I0
ssg478
(dp1002
g439
I0
sg440
I0
sg425
I0
ssg475
(dp1003
g439
I0
sg440
I0
sg425
I0
ssg448
(dp1004
g439
I0
sg440
I0
sg425
I0
ssg509
(dp1005
g439
I0
sg440
I0
sg425
I0
sssg429
g480
sg430
Nsg481
I1
sg25
S'Max Settling\012Rise'
sg432
g156
sg435
I40
sg434
g156
ssg317
(dp1006
g425
I1
sg426
I1
sg427
g428
sg429
Nsg430
Nsg431
S''
sg25
g317
sg432
g433
sg434
S''
sg435
I40
sg436
(dp1007
g497
(dp1008
g439
I0
sg440
I0
sg425
I0
ssg499
(dp1009
g439
I0
sg440
I0
sg425
I0
ssg501
(dp1010
g439
I0
sg440
I0
sg425
I0
ssssg367
(dp1011
g427
g466
sg431
g102
sg425
I0
sg426
I1
sg436
(dp1012
g468
(dp1013
g439
I0
sg440
I0
sg425
I0
ssg76
(dp1014
g439
I0
sg440
I0
sg425
I0
ssg471
(dp1015
g439
I0
sg440
I0
sg425
I0
ssg473
(dp1016
g439
I0
sg440
I0
sg425
I0
ssg475
(dp1017
g439
I0
sg440
I0
sg425
I0
ssg448
(dp1018
g439
I0
sg440
I0
sg425
I0
ssg478
(dp1019
g439
I0
sg440
I0
sg425
I0
sssg429
g480
sg430
Nsg481
I1
sg25
S'Min Longest\012Flight Time (Rise)'
sg432
g156
sg435
I40
sg434
g156
ssg415
(dp1020
g427
g466
sg431
g102
sg425
I0
sg426
I0
sg436
(dp1021
g509
(dp1022
g439
I0
sg440
I0
sg425
I0
ssg516
(dp1023
g439
I0
sg440
I0
sg425
I0
sssg429
g480
sg430
Nsg481
I1
sg25
S'Switching\012Rise Time'
sg432
g156
sg435
I40
sg434
g156
ssg363
(dp1024
g427
g466
sg431
g68
sg425
I0
sg426
I1
sg436
(dp1025
g468
(dp1026
g439
I0
sg440
I1
sg425
I0
ssg76
(dp1027
g439
I0
sg440
I1
sg425
I0
ssg473
(dp1028
g439
I0
sg440
I0
sg425
I0
ssg77
(dp1029
g439
I0
sg440
I1
sg425
I0
ssg475
(dp1030
g439
I0
sg440
I0
sg425
I0
ssg478
(dp1031
g439
I0
sg440
I1
sg425
I0
sssg429
g480
sg430
Nsg481
I0
sg25
S'Min track\012width'
sg432
g433
sg435
I40
sg434
g96
ssg350
(dp1032
g427
g466
sg431
g193
sg425
I0
sg426
I1
sg436
(dp1033
g468
(dp1034
g439
I0
sg440
I0
sg425
I0
ssg516
(dp1035
g439
I0
sg440
I0
sg425
I0
ssg76
(dp1036
g439
I0
sg440
I0
sg425
I0
ssg478
(dp1037
g439
I0
sg440
I0
sg425
I0
ssg509
(dp1038
g439
I0
sg440
I0
sg425
I0
ssg475
(dp1039
g439
I0
sg440
I0
sg425
I0
ssg448
(dp1040
g439
I0
sg440
I0
sg425
I0
ssg473
(dp1041
g439
I0
sg440
I0
sg425
I0
sssg429
g480
sg430
Nsg481
I1
sg25
S'Undershoot\012(Falling Edge)'
sg432
g433
sg435
I40
sg434
g158
ssg382
(dp1042
g427
g466
sg431
g102
sg425
I0
sg426
I1
sg436
(dp1043
g509
(dp1044
g439
I0
sg440
I0
sg425
I0
ssg516
(dp1045
g439
I0
sg440
I0
sg425
I0
sssg429
g480
sg430
Nsg481
I1
sg25
S'Longest Flight\012Time (Fall)'
sg432
g156
sg435
I40
sg434
g156
ssg357
(dp1046
g427
g466
sg431
g169
sg425
I0
sg426
I1
sg436
(dp1047
g468
(dp1048
g439
I0
sg440
I1
sg425
I0
ssg76
(dp1049
g439
I0
sg440
I1
sg425
I0
ssg475
(dp1050
g439
I0
sg440
I0
sg425
I0
sssg429
g480
sg430
Nsg481
I0
sg25
S'Min\012Differential Z'
sg432
g433
sg435
I40
sg434
g155
ssg371
(dp1051
g427
g466
sg431
g102
sg425
I0
sg426
I1
sg436
(dp1052
g509
(dp1053
g439
I0
sg440
I0
sg425
I0
ssg516
(dp1054
g439
I0
sg440
I0
sg425
I0
sssg429
g480
sg430
Nsg481
I1
sg25
S'Typical Flight\012Time (Rise)'
sg432
g156
sg435
I40
sg434
g156
ssg421
(dp1055
g427
g466
sg431
g167
sg425
I0
sg426
I1
sg436
(dp1056
g77
(dp1057
g439
I0
sg440
I1
sg425
I0
sssg429
Nsg430
Nsg481
I0
sg25
S'Capacitance\012of vias'
sg432
g433
sg435
I20
sg434
g159
ssg305
(dp1058
g425
I0
sg426
I1
sg427
g444
sg429
g480
sg430
(dp1059
g478
(lp1060
S'Free'
p1061
aS'Daisy Chain'
p1062
aS'Star'
p1063
aS'Remote Star'
p1064
aS'Data Bus'
p1065
aS'H-Tree'
p1066
aS'User'
p1067
aS'Tpin'
p1068
aS'TpinVia'
p1069
aS'Chained'
p1070
asg468
(lp1071
g1061
ag1062
ag1063
ag1064
ag1065
ag1066
ag1067
ag1068
ag1069
ag1070
assg431
S''
sg25
g305
sg432
g433
sg434
S''
sg435
I40
sg436
(dp1072
g478
(dp1073
g439
I0
sg440
I0
sg425
I0
ssg468
(dp1074
g439
I0
sg440
I0
sg425
I0
ssssg370
(dp1075
g427
g466
sg431
g102
sg425
I0
sg426
I1
sg436
(dp1076
g468
(dp1077
g439
I0
sg440
I0
sg425
I0
ssg76
(dp1078
g439
I0
sg440
I0
sg425
I0
ssg471
(dp1079
g439
I0
sg440
I0
sg425
I0
ssg473
(dp1080
g439
I0
sg440
I0
sg425
I0
ssg475
(dp1081
g439
I0
sg440
I0
sg425
I0
ssg448
(dp1082
g439
I0
sg440
I0
sg425
I0
ssg478
(dp1083
g439
I0
sg440
I0
sg425
I0
sssg429
g480
sg430
Nsg481
I1
sg25
S'Max Longest\012Flight Time (Rise)'
sg432
g156
sg435
I40
sg434
g156
ssg411
(dp1084
g427
g466
sg431
g102
sg425
I0
sg426
I1
sg436
(dp1085
g509
(dp1086
g439
I0
sg440
I0
sg425
I0
ssg516
(dp1087
g439
I0
sg440
I0
sg425
I0
sssg429
g480
sg430
Nsg481
I1
sg25
S'Rising\012Slope'
sg432
g156
sg435
I40
sg434
g156
ssg398
(dp1088
g427
g466
sg431
g102
sg425
I0
sg426
I1
sg436
(dp1089
g468
(dp1090
g439
I0
sg440
I0
sg425
I0
ssg76
(dp1091
g439
I0
sg440
I0
sg425
I0
ssg471
(dp1092
g439
I0
sg440
I0
sg425
I0
ssg473
(dp1093
g439
I0
sg440
I0
sg425
I0
ssg475
(dp1094
g439
I0
sg440
I0
sg425
I0
ssg448
(dp1095
g439
I0
sg440
I0
sg425
I0
ssg478
(dp1096
g439
I0
sg440
I0
sg425
I0
sssg429
g480
sg430
Nsg481
I1
sg25
S'Max Settled\012Flight Time (Fall)'
sg432
g156
sg435
I40
sg434
g156
ssg366
(dp1097
g427
g466
sg431
g102
sg425
I0
sg426
I1
sg436
(dp1098
g468
(dp1099
g439
I0
sg440
I0
sg425
I0
ssg76
(dp1100
g439
I0
sg440
I0
sg425
I0
ssg471
(dp1101
g439
I0
sg440
I0
sg425
I0
ssg473
(dp1102
g439
I0
sg440
I0
sg425
I0
ssg475
(dp1103
g439
I0
sg440
I0
sg425
I0
ssg448
(dp1104
g439
I0
sg440
I0
sg425
I0
ssg478
(dp1105
g439
I0
sg440
I0
sg425
I0
sssg429
g480
sg430
Nsg481
I1
sg25
S'Min Shortest\012Flight Time (Rise)'
sg432
g156
sg435
I40
sg434
g156
ssg314
(dp1106
g425
I1
sg426
I1
sg427
g428
sg429
Nsg430
Nsg431
S''
sg25
g314
sg432
g433
sg434
S''
sg435
I40
sg436
(dp1107
g456
(dp1108
g439
I0
sg440
I0
sg425
I0
ssg454
(dp1109
g439
I0
sg440
I0
sg425
I0
ssg458
(dp1110
g439
I0
sg440
I0
sg425
I0
ssssg352
(dp1111
g427
g466
sg431
S''
sg425
I0
sg426
I1
sg436
(dp1112
g468
(dp1113
g439
I0
sg440
I0
sg425
I0
ssg76
(dp1114
g439
I0
sg440
I0
sg425
I0
ssg509
(dp1115
g439
I0
sg440
I0
sg425
I0
ssg478
(dp1116
g439
I0
sg440
I0
sg425
I0
ssg475
(dp1117
g439
I0
sg440
I0
sg425
I0
ssg448
(dp1118
g439
I0
sg440
I0
sg425
I0
ssg473
(dp1119
g439
I0
sg440
I0
sg425
I0
sssg429
g480
sg430
Nsg481
I1
sg25
S'Monotonic\012(Rising Edge)'
sg432
g433
sg435
I40
sg434
S''
ssg157
(dp1120
g425
I0
sg426
I1
sg427
g428
sg429
Nsg430
Nsg431
g178
sg25
g157
sg432
g433
sg434
S''
sg435
I20
sg436
(dp1121
g456
(dp1122
g439
I0
sg440
I0
sg425
I1
ssg499
(dp1123
g439
I0
sg440
I0
sg425
I1
ssg497
(dp1124
g439
I0
sg440
I0
sg425
I1
ssg454
(dp1125
g439
I0
sg440
I0
sg425
I0
ssg458
(dp1126
g439
I0
sg440
I0
sg425
I0
ssg828
(dp1127
g439
I0
sg440
I0
sg425
I1
ssssg383
(dp1128
g427
g466
sg431
g102
sg425
I0
sg426
I0
sg436
(dp1129
g509
(dp1130
g439
I0
sg440
I0
sg425
I0
ssg516
(dp1131
g439
I0
sg440
I0
sg425
I0
sssg429
g480
sg430
Nsg481
I1
sg25
S'Settling\012Rise Time'
sg432
g156
sg435
I40
sg434
g156
ssg341
(dp1132
g427
g466
sg431
g193
sg425
I0
sg426
I1
sg436
(dp1133
g473
(dp1134
g439
I1
sg440
I0
sg425
I0
ssg478
(dp1135
g439
I1
sg440
I0
sg425
I0
sssg429
g480
sg430
Nsg481
I0
sg25
S'Min crosstalk\012Contribution'
sg432
g433
sg435
I40
sg434
g158
ssg351
(dp1136
g427
g466
sg431
S''
sg425
I0
sg426
I1
sg436
(dp1137
g468
(dp1138
g439
I0
sg440
I0
sg425
I0
ssg76
(dp1139
g439
I0
sg440
I0
sg425
I0
ssg509
(dp1140
g439
I0
sg440
I0
sg425
I0
ssg478
(dp1141
g439
I0
sg440
I0
sg425
I0
ssg475
(dp1142
g439
I0
sg440
I0
sg425
I0
ssg448
(dp1143
g439
I0
sg440
I0
sg425
I0
ssg473
(dp1144
g439
I0
sg440
I0
sg425
I0
sssg429
g480
sg430
Nsg481
I1
sg25
S'Monotonic\012(Falling Edge)'
sg432
g433
sg435
I40
sg434
S''
ssg408
(dp1145
g427
g466
sg431
g102
sg425
I0
sg426
I1
sg436
(dp1146
g468
(dp1147
g439
I0
sg440
I0
sg425
I0
ssg471
(dp1148
g439
I0
sg440
I0
sg425
I0
ssg473
(dp1149
g439
I0
sg440
I0
sg425
I0
ssg76
(dp1150
g439
I0
sg440
I0
sg425
I0
ssg448
(dp1151
g439
I0
sg440
I0
sg425
I0
ssg475
(dp1152
g439
I0
sg440
I0
sg425
I0
ssg478
(dp1153
g439
I0
sg440
I0
sg425
I0
sssg429
g480
sg430
Nsg481
I1
sg25
S'Min Slope\012(Rise)'
sg432
g156
sg435
I40
sg434
g156
ssg365
(dp1154
g427
g466
sg431
g102
sg425
I0
sg426
I1
sg436
(dp1155
g468
(dp1156
g439
I0
sg440
I0
sg425
I0
ssg76
(dp1157
g439
I0
sg440
I0
sg425
I0
ssg471
(dp1158
g439
I0
sg440
I0
sg425
I0
ssg473
(dp1159
g439
I0
sg440
I0
sg425
I0
ssg475
(dp1160
g439
I0
sg440
I0
sg425
I0
ssg448
(dp1161
g439
I0
sg440
I0
sg425
I0
ssg478
(dp1162
g439
I0
sg440
I0
sg425
I0
sssg429
g480
sg430
Nsg481
I1
sg25
S'Min Typical\012Flight Time (Rise)'
sg432
g156
sg435
I40
sg434
g156
ssg322
(dp1163
g425
I1
sg426
I1
sg427
g428
sg429
Nsg430
Nsg431
S''
sg25
g322
sg432
g433
sg434
S''
sg435
I20
sg436
(dp1164
g499
(dp1165
g439
I0
sg440
I0
sg425
I1
ssg501
(dp1166
g439
I0
sg440
I0
sg425
I1
ssssg384
(dp1167
g427
g466
sg431
g102
sg425
I0
sg426
I0
sg436
(dp1168
g509
(dp1169
g439
I0
sg440
I0
sg425
I0
ssg516
(dp1170
g439
I0
sg440
I0
sg425
I0
sssg429
g480
sg430
Nsg481
I1
sg25
S'Settling\012Fall Time'
sg432
g156
sg435
I40
sg434
g156
ssg354
(dp1171
g427
g466
sg431
g169
sg425
I0
sg426
I1
sg436
(dp1172
g468
(dp1173
g439
I0
sg440
I1
sg425
I0
ssg76
(dp1174
g439
I0
sg440
I1
sg425
I0
ssg473
(dp1175
g439
I0
sg440
I0
sg425
I0
ssg77
(dp1176
g439
I0
sg440
I1
sg425
I0
ssg475
(dp1177
g439
I0
sg440
I0
sg425
I0
ssg478
(dp1178
g439
I0
sg440
I1
sg425
I0
sssg429
g480
sg430
Nsg481
I0
sg25
g702
sg432
g433
sg435
I40
sg434
g155
ssg381
(dp1179
g427
g466
sg431
g102
sg425
I0
sg426
I1
sg436
(dp1180
g509
(dp1181
g439
I0
sg440
I0
sg425
I0
ssg516
(dp1182
g439
I0
sg440
I0
sg425
I0
sssg429
g480
sg430
Nsg481
I1
sg25
S'Shortest Flight\012Time (Fall)'
sg432
g156
sg435
I40
sg434
g156
ssg413
(dp1183
g427
g466
sg431
g193
sg425
I0
sg426
I0
sg436
(dp1184
g509
(dp1185
g439
I0
sg440
I0
sg425
I0
ssg516
(dp1186
g439
I0
sg440
I0
sg425
I0
sssg429
g480
sg430
Nsg481
I1
sg25
S'Nonmonoticity\012Swing (Rise)'
sg432
g156
sg435
I40
sg434
g158
ssg364
(dp1187
g427
g466
sg431
g68
sg425
I0
sg426
I1
sg436
(dp1188
g468
(dp1189
g439
I0
sg440
I1
sg425
I0
ssg76
(dp1190
g439
I1
sg440
I1
sg425
I0
ssg473
(dp1191
g439
I0
sg440
I0
sg425
I0
ssg77
(dp1192
g439
I0
sg440
I1
sg425
I0
ssg475
(dp1193
g439
I0
sg440
I0
sg425
I0
ssg478
(dp1194
g439
I0
sg440
I1
sg425
I0
sssg429
g480
sg430
Nsg481
I0
sg25
S'Max track\012width'
sg432
g433
sg435
I40
sg434
g96
ssg374
(dp1195
g427
g466
sg431
g102
sg425
I0
sg426
I1
sg436
(dp1196
g468
(dp1197
g439
I0
sg440
I0
sg425
I0
ssg76
(dp1198
g439
I0
sg440
I0
sg425
I0
ssg471
(dp1199
g439
I0
sg440
I0
sg425
I0
ssg473
(dp1200
g439
I0
sg440
I0
sg425
I0
ssg475
(dp1201
g439
I0
sg440
I0
sg425
I0
ssg448
(dp1202
g439
I0
sg440
I0
sg425
I0
ssg478
(dp1203
g439
I0
sg440
I0
sg425
I0
sssg429
g480
sg430
Nsg481
I1
sg25
S'Min Typical\012Flight Time (Fall)'
sg432
g156
sg435
I40
sg434
g156
ssg405
(dp1204
g427
g466
sg431
g193
sg425
I0
sg426
I1
sg436
(dp1205
g509
(dp1206
g439
I0
sg440
I0
sg425
I0
ssg516
(dp1207
g439
I0
sg440
I0
sg425
I0
sssg429
g480
sg430
Nsg481
I1
sg25
S'Base Line\012Voltage'
sg432
g156
sg435
I40
sg434
g158
ssg402
(dp1208
g427
g466
sg431
g193
sg425
I0
sg426
I1
sg436
(dp1209
g509
(dp1210
g439
I0
sg440
I0
sg425
I0
ssg516
(dp1211
g439
I0
sg440
I0
sg425
I0
sssg429
g480
sg430
Nsg481
I1
sg25
g402
sg432
g156
sg435
I40
sg434
g158
ssg401
(dp1212
g427
g466
sg431
g102
sg425
I0
sg426
I1
sg436
(dp1213
g468
(dp1214
g439
I0
sg440
I0
sg425
I0
ssg76
(dp1215
g439
I0
sg440
I0
sg425
I0
ssg516
(dp1216
g439
I0
sg440
I0
sg425
I0
ssg473
(dp1217
g439
I0
sg440
I0
sg425
I0
ssg471
(dp1218
g439
I0
sg440
I0
sg425
I0
ssg478
(dp1219
g439
I0
sg440
I0
sg425
I0
ssg475
(dp1220
g439
I0
sg440
I0
sg425
I0
ssg448
(dp1221
g439
I0
sg440
I0
sg425
I0
ssg509
(dp1222
g439
I0
sg440
I0
sg425
I0
sssg429
g480
sg430
Nsg481
I1
sg25
S'Max Settling\012Fall'
sg432
g156
sg435
I40
sg434
g156
ssg333
(dp1223
g425
I0
sg426
I1
sg427
g428
sg429
g480
sg430
(dp1224
g452
(lsg468
(lsg489
(lsg478
(lsg76
(lssg431
S''
sg25
S'Impedance Template'
sg432
g433
sg434
S''
sg435
I40
sg436
(dp1225
g452
(dp1226
g439
I0
sg440
I0
sg425
I0
ssg468
(dp1227
g439
I0
sg440
I0
sg425
I0
ssg489
(dp1228
g439
I0
sg440
I0
sg425
I0
ssg509
(dp1229
g439
I0
sg440
I0
sg425
I0
ssg76
(dp1230
g439
I0
sg440
I0
sg425
I0
ssg478
(dp1231
g439
I0
sg440
I0
sg425
I0
ssssg300
(dp1232
g425
I0
sg426
I1
sg427
g444
sg429
g480
sg430
Nsg431
g68
sg25
S'Min Length'
p1233
sg432
g96
sg434
g96
sg435
I40
sg436
(dp1234
g468
(dp1235
g439
I0
sg440
I0
sg425
I0
ssg489
(dp1236
g439
I0
sg440
I0
sg425
I0
ssg471
(dp1237
g439
I0
sg440
I0
sg425
I0
ssg76
(dp1238
g439
I0
sg440
I0
sg425
I0
ssg478
(dp1239
g439
I0
sg440
I0
sg425
I0
ssg509
(dp1240
g439
I0
sg440
I0
sg425
I0
ssg448
(dp1241
g439
I0
sg440
I0
sg425
I0
ssg473
(dp1242
g439
I0
sg440
I0
sg425
I0
ssg452
(dp1243
g439
I0
sg440
I0
sg425
I0
ssssg360
(dp1244
g427
g466
sg431
g169
sg425
I0
sg426
I1
sg436
(dp1245
g468
(dp1246
g439
I0
sg440
I1
sg425
I0
ssg76
(dp1247
g439
I0
sg440
I1
sg425
I0
ssg475
(dp1248
g439
I0
sg440
I0
sg425
I0
sssg429
g480
sg430
Nsg481
I0
sg25
S'Max\012Even Z'
sg432
g433
sg435
I40
sg434
g155
ssg419
(dp1249
g427
g466
sg431
g167
sg425
I0
sg426
I1
sg436
(dp1250
g77
(dp1251
g439
I0
sg440
I0
sg425
I0
sssg429
Nsg430
Nsg481
I0
sg25
S'Total\012Capacitance'
sg432
g433
sg435
I20
sg434
g159
ssg336
(dp1252
g425
I1
sg426
I1
sg427
g820
sg429
Nsg430
Nsg431
S''
sg25
g336
sg432
g433
sg434
S''
sg435
I40
sg436
(dp1253
g454
(dp1254
g439
I0
sg440
I0
sg425
I0
ssg501
(dp1255
g439
I0
sg440
I0
sg425
I0
ssg497
(dp1256
g439
I0
sg440
I0
sg425
I0
ssg458
(dp1257
g439
I0
sg440
I0
sg425
I0
ssg499
(dp1258
g439
I0
sg440
I0
sg425
I0
ssg456
(dp1259
g439
I0
sg440
I0
sg425
I0
ssg828
(dp1260
g439
I0
sg440
I0
sg425
I0
ssssg389
(dp1261
g427
g466
sg431
g68
sg425
I0
sg426
I1
sg436
(dp1262
g468
(dp1263
g439
I0
sg440
I0
sg425
I0
ssg76
(dp1264
g439
I0
sg440
I0
sg425
I0
ssg516
(dp1265
g439
I0
sg440
I0
sg425
I0
ssg473
(dp1266
g439
I0
sg440
I0
sg425
I0
ssg471
(dp1267
g439
I0
sg440
I0
sg425
I0
ssg478
(dp1268
g439
I0
sg440
I0
sg425
I0
ssg475
(dp1269
g439
I0
sg440
I0
sg425
I0
ssg448
(dp1270
g439
I0
sg440
I0
sg425
I0
ssg509
(dp1271
g439
I0
sg440
I0
sg425
I0
sssg429
g480
sg430
Nsg481
I0
sg25
g1233
sg432
g96
sg435
I40
sg434
g96
ssg410
(dp1272
g427
g466
sg431
g102
sg425
I0
sg426
I1
sg436
(dp1273
g509
(dp1274
g439
I0
sg440
I0
sg425
I0
ssg516
(dp1275
g439
I0
sg440
I0
sg425
I0
sssg429
g480
sg430
Nsg481
I1
sg25
S'Falling\012Slope'
sg432
g156
sg435
I40
sg434
g156
ssg337
(dp1276
g427
g466
sg431
g193
sg425
I0
sg426
I1
sg436
(dp1277
g478
(dp1278
g439
I1
sg440
I0
sg425
I0
ssg468
(dp1279
g439
I0
sg440
I0
sg425
I0
ssg76
(dp1280
g439
I0
sg440
I0
sg425
I0
ssg473
(dp1281
g439
I1
sg440
I0
sg425
I0
ssg475
(dp1282
g439
I0
sg440
I0
sg425
I0
ssg448
(dp1283
g439
I0
sg440
I0
sg425
I0
sssg429
g480
sg430
Nsg481
I0
sg25
S'Min RSS\012crosstalk'
sg432
g433
sg435
I40
sg434
g158
ssg302
(dp1284
g425
I0
sg426
I1
sg427
g444
sg429
g480
sg430
Nsg431
g68
sg25
g801
sg432
g96
sg434
g96
sg435
I40
sg436
(dp1285
g468
(dp1286
g439
I0
sg440
I0
sg425
I0
ssg489
(dp1287
g439
I0
sg440
I0
sg425
I0
ssg471
(dp1288
g439
I0
sg440
I0
sg425
I0
ssg473
(dp1289
g439
I0
sg440
I0
sg425
I0
ssg76
(dp1290
g439
I0
sg440
I0
sg425
I0
ssg448
(dp1291
g439
I0
sg440
I0
sg425
I0
ssg475
(dp1292
g439
I0
sg440
I0
sg425
I0
ssg478
(dp1293
g439
I0
sg440
I0
sg425
I0
ssg452
(dp1294
g439
I0
sg440
I0
sg425
I0
ssssg308
(dp1295
g425
I0
sg426
I1
sg427
g428
sg429
S'3.0'
sg430
Nsg431
S''
sg25
S'Etch Factor'
sg432
g433
sg434
S''
sg435
I40
sg436
(dp1296
g452
(dp1297
g439
I0
sg440
I0
sg425
I0
ssssg372
(dp1298
g427
g466
sg431
g102
sg425
I0
sg426
I1
sg436
(dp1299
g509
(dp1300
g439
I0
sg440
I0
sg425
I0
ssg516
(dp1301
g439
I0
sg440
I0
sg425
I0
sssg429
g480
sg430
Nsg481
I1
sg25
S'Shortest Flight\012Time (Rise)'
sg432
g156
sg435
I40
sg434
g156
ssg386
(dp1302
g427
g466
sg431
g102
sg425
I0
sg426
I1
sg436
(dp1303
g448
(dp1304
g439
I0
sg440
I0
sg425
I0
sssg429
g480
sg430
Nsg481
I1
sg25
g866
sg432
g156
sg435
I40
sg434
g156
ssg340
(dp1305
g427
g466
sg431
g193
sg425
I0
sg426
I1
sg436
(dp1306
g478
(dp1307
g439
I1
sg440
I0
sg425
I0
ssg468
(dp1308
g439
I0
sg440
I0
sg425
I0
ssg76
(dp1309
g439
I0
sg440
I0
sg425
I0
ssg473
(dp1310
g439
I1
sg440
I0
sg425
I0
ssg475
(dp1311
g439
I0
sg440
I0
sg425
I0
ssg448
(dp1312
g439
I0
sg440
I0
sg425
I0
sssg429
g480
sg430
Nsg481
I0
sg25
S'Max simple\012crosstalk'
sg432
g433
sg435
I40
sg434
g158
ssg361
(dp1313
g427
g466
sg431
g169
sg425
I0
sg426
I1
sg436
(dp1314
g468
(dp1315
g439
I0
sg440
I1
sg425
I0
ssg76
(dp1316
g439
I0
sg440
I1
sg425
I0
ssg475
(dp1317
g439
I0
sg440
I0
sg425
I0
sssg429
g480
sg430
Nsg481
I0
sg25
S'Min\012Odd Z'
sg432
g433
sg435
I40
sg434
g155
ssg393
(dp1318
g427
g466
sg431
g68
sg425
I0
sg426
I1
sg436
(dp1319
g448
(dp1320
g439
I0
sg440
I0
sg425
I0
sssg429
g480
sg430
Nsg481
I0
sg25
g934
sg432
g96
sg435
I40
sg434
g96
ssg353
(dp1321
g427
g466
sg431
g169
sg425
I0
sg426
I1
sg436
(dp1322
g468
(dp1323
g439
I0
sg440
I1
sg425
I0
ssg76
(dp1324
g439
I0
sg440
I1
sg425
I0
ssg473
(dp1325
g439
I0
sg440
I0
sg425
I0
ssg77
(dp1326
g439
I0
sg440
I1
sg425
I0
ssg475
(dp1327
g439
I0
sg440
I0
sg425
I0
ssg478
(dp1328
g439
I0
sg440
I1
sg425
I0
sssg429
g480
sg430
Nsg481
I0
sg25
g484
sg432
g433
sg435
I40
sg434
g155
ssg390
(dp1329
g427
g466
sg431
g68
sg425
I0
sg426
I1
sg436
(dp1330
g468
(dp1331
g439
I0
sg440
I0
sg425
I0
ssg76
(dp1332
g439
I0
sg440
I0
sg425
I0
ssg516
(dp1333
g439
I0
sg440
I0
sg425
I0
ssg473
(dp1334
g439
I0
sg440
I0
sg425
I0
ssg471
(dp1335
g439
I0
sg440
I0
sg425
I0
ssg478
(dp1336
g439
I0
sg440
I0
sg425
I0
ssg475
(dp1337
g439
I0
sg440
I0
sg425
I0
ssg448
(dp1338
g439
I0
sg440
I0
sg425
I0
ssg509
(dp1339
g439
I0
sg440
I0
sg425
I0
sssg429
g480
sg430
Nsg481
I0
sg25
g741
sg432
g96
sg435
I40
sg434
g96
ssg297
(dp1340
g425
I0
sg426
I1
sg427
g444
sg429
g445
sg430
Nsg431
g102
sg25
g801
sg432
g156
sg434
g156
sg435
I40
sg436
(dp1341
g468
(dp1342
g439
I0
sg440
I0
sg425
I0
ssg489
(dp1343
g439
I0
sg440
I0
sg425
I0
ssg471
(dp1344
g439
I0
sg440
I0
sg425
I0
ssg473
(dp1345
g439
I0
sg440
I0
sg425
I0
ssg76
(dp1346
g439
I0
sg440
I0
sg425
I0
ssg448
(dp1347
g439
I0
sg440
I0
sg425
I0
ssg475
(dp1348
g439
I0
sg440
I0
sg425
I0
ssg478
(dp1349
g439
I0
sg440
I0
sg425
I0
ssg452
(dp1350
g439
I0
sg440
I0
sg425
I0
ssssg409
(dp1351
g427
g466
sg431
g102
sg425
I0
sg426
I1
sg436
(dp1352
g468
(dp1353
g439
I0
sg440
I0
sg425
I0
ssg471
(dp1354
g439
I0
sg440
I0
sg425
I0
ssg473
(dp1355
g439
I0
sg440
I0
sg425
I0
ssg76
(dp1356
g439
I0
sg440
I0
sg425
I0
ssg448
(dp1357
g439
I0
sg440
I0
sg425
I0
ssg475
(dp1358
g439
I0
sg440
I0
sg425
I0
ssg478
(dp1359
g439
I0
sg440
I0
sg425
I0
sssg429
g480
sg430
Nsg481
I1
sg25
S'Max Slope\012(Rise)'
sg432
g156
sg435
I40
sg434
g156
ssg377
(dp1360
g427
g466
sg431
g102
sg425
I0
sg426
I1
sg436
(dp1361
g468
(dp1362
g439
I0
sg440
I0
sg425
I0
ssg76
(dp1363
g439
I0
sg440
I0
sg425
I0
ssg471
(dp1364
g439
I0
sg440
I0
sg425
I0
ssg473
(dp1365
g439
I0
sg440
I0
sg425
I0
ssg475
(dp1366
g439
I0
sg440
I0
sg425
I0
ssg448
(dp1367
g439
I0
sg440
I0
sg425
I0
ssg478
(dp1368
g439
I0
sg440
I0
sg425
I0
sssg429
g480
sg430
Nsg481
I1
sg25
S'Max Typical\012Flight Time (Fall)'
sg432
g156
sg435
I40
sg434
g156
ssabsg19
S''
sg13
(dp1369
S'allChildItems'
p1370
(dp1371
S'PartBranch'
p1372
(dp1373
S'ConnElemBranch'
p1374
I1
sg497
I1
sg458
I1
sS'CompsBranch'
p1375
I1
sg499
I1
sg456
I1
sg828
I1
ssS'PPBranch'
p1376
(dp1377
g77
I1
sg1376
I1
sS'DPPP'
p1378
I1
sS'VBP'
p1379
I1
sg478
I1
sg1374
I1
sg497
I1
sg458
I1
sg1375
I1
sg499
I1
sg828
I1
sg509
I1
ssg525
(dp1380
g454
I1
sg501
I1
ssS'Design'
p1381
(dp1382
g454
I1
sg1372
I1
sg501
I1
sg471
I1
sg1376
I1
sg525
I1
sS'ENetBranch'
p1383
I1
sS'BusBranch'
p1384
I1
sg478
I1
sS'StimBranch'
p1385
I1
sg76
I1
sg448
I1
sg499
I1
sg441
I1
sS'SkewGrpBranch'
p1386
I1
sg509
I1
sg452
I1
sg828
I1
sS'NetP'
p1387
I1
sg468
I1
sg458
I1
sS'DPBranch'
p1388
I1
sS'PNetBranch'
p1389
I1
sg77
I1
sS'NetPBranch'
p1390
I1
sg1378
I1
sg521
I1
sg1379
I1
sS'NetCBranch'
p1391
I1
sg1375
I1
sS'SysConnectBranch'
p1392
I1
sg456
I1
sg489
I1
sg497
I1
sg1374
I1
sS'PathBranch'
p1393
I1
sS'BoardBranch'
p1394
I1
sS'Stim'
p1395
I1
sS'WFBranch'
p1396
I1
sS'DVSBranch'
p1397
I1
sS'WF'
p1398
I1
ssg1384
(dp1399
g1387
I1
sg468
I1
sg458
I1
sg77
I1
sg471
I1
sg1376
I1
sg1390
I1
sg1378
I1
sg1379
I1
sg1374
I1
sg509
I1
sg497
I1
sg76
I1
sg1375
I1
sg499
I1
sg828
I1
sg478
I1
ssg1374
(dp1400
g828
I1
sg499
I1
sg497
I1
ssg475
(dp1401
S'DesignEnet'
p1402
I1
sg516
I1
sg77
I1
sg1378
I1
sS'sysEnetPinPairBranch'
p1403
I1
sg1379
I1
sg473
I1
sg1376
I1
sg1374
I1
sg509
I1
sg497
I1
sg458
I1
sS'sysEnetBoard'
p1404
I1
sg1375
I1
sg499
I1
sg828
I1
sg478
I1
ssg448
(dp1405
g1387
I1
sg468
I1
sg458
I1
sg77
I1
sg471
I1
sg1376
I1
sg1390
I1
sg1378
I1
sg1379
I1
sg478
I1
sg1374
I1
sg497
I1
sg76
I1
sg448
I1
sg1375
I1
sg499
I1
sg828
I1
sg509
I1
ssg441
(dp1406
g1375
I1
sg499
I1
sg1374
I1
sg828
I1
sg458
I1
sg497
I1
ssg1386
(dp1407
g1387
I1
sg468
I1
sg458
I1
sg77
I1
sg471
I1
sg1378
I1
sg1390
I1
sg1379
I1
sg1376
I1
sg1374
I1
sg509
I1
sg497
I1
sg76
I1
sg448
I1
sg1375
I1
sg499
I1
sg828
I1
sg478
I1
ssg452
(dp1408
g1372
I1
sg501
I1
sg471
I1
sg1376
I1
sg525
I1
sg1383
I1
sg454
I1
sg1379
I1
sg1374
I1
sg458
I1
sg448
I1
sg499
I1
sg441
I1
sg1386
I1
sg509
I1
sg1387
I1
sg468
I1
sg76
I1
sg1388
I1
sg1389
I1
sg77
I1
sg1390
I1
sg1378
I1
sg521
I1
sg1396
I1
sg1391
I1
sg1375
I1
sg1392
I1
sg456
I1
sg489
I1
sg497
I1
sg1393
I1
sg1384
I1
sg1394
I1
sg828
I1
sg478
I1
sg1398
I1
ssg1393
(dp1409
g77
I1
sg471
I1
sg1378
I1
sg1379
I1
sg1376
I1
sg1374
I1
sg509
I1
sg497
I1
sg458
I1
sg1375
I1
sg499
I1
sg828
I1
sg478
I1
ssg1387
(dp1410
g1379
I1
sg77
I1
sg499
I1
ssg1389
(dp1411
g1374
I1
sg497
I1
sg458
I1
sg1375
I1
sg499
I1
sg441
I1
sg828
I1
ssg1390
(dp1412
g1387
I1
sg499
I1
sg1379
I1
sg77
I1
ssg1378
(dp1413
g499
I1
ssS'sysPwrNetBoard'
p1414
(dp1415
g454
I1
sS'sysPwrNetCompBranch'
p1416
I1
sg501
I1
ssg1404
(dp1417
g1402
I1
sg77
I1
sg1376
I1
sg1378
I1
sg1379
I1
sg478
I1
sg1374
I1
sg497
I1
sg458
I1
sg1375
I1
sg499
I1
sg828
I1
sg509
I1
ssg473
(dp1418
g1402
I1
sg516
I1
sg77
I1
sg1378
I1
sg1403
I1
sg1379
I1
sg1376
I1
sg1374
I1
sg509
I1
sg497
I1
sg458
I1
sg1404
I1
sg1375
I1
sg499
I1
sg828
I1
sg478
I1
ssg1392
(dp1419
g454
I1
sg525
I1
sg501
I1
ssg489
(dp1420
g77
I1
sg1376
I1
sg1378
I1
sg1379
I1
sg478
I1
sg1374
I1
sg497
I1
sg458
I1
sg1375
I1
sg499
I1
sg828
I1
sg509
I1
ssg1394
(dp1421
g1392
I1
sg521
I1
sg525
I1
sg501
I1
sg454
I1
ssg1416
(dp1422
g454
I1
sg501
I1
ssS'SysDiffPairBranch'
p1423
(dp1424
g1402
I1
sg516
I1
sg77
I1
sg509
I1
sg1376
I1
sg1403
I1
sg1378
I1
sg1404
I1
sg473
I1
sg1374
I1
sg1379
I1
sg497
I1
sg458
I1
sg1375
I1
sg499
I1
sg475
I1
sg828
I1
sg478
I1
ssg478
(dp1425
g77
I1
sg1376
I1
sg1378
I1
sg1379
I1
sg1374
I1
sg509
I1
sg497
I1
sg458
I1
sg1375
I1
sg499
I1
sg828
I1
sg478
I1
ssg471
(dp1426
g77
I1
sg1376
I1
sg1378
I1
sg1379
I1
sg478
I1
sg1374
I1
sg497
I1
sg458
I1
sg1375
I1
sg499
I1
sg828
I1
sg509
I1
ssg1403
(dp1427
g516
I1
ssg454
(dp1428
g501
I1
ssg1385
(dp1429
g1395
I1
ssg458
(dp1430
g499
I1
sg1374
I1
sg828
I1
sg497
I1
ssg1397
(dp1431
g454
I1
sg1372
I1
sg501
I1
sg471
I1
sg1376
I1
sg525
I1
sg1383
I1
sg1384
I1
sg478
I1
sg1374
I1
sg458
I1
sg448
I1
sg499
I1
sg441
I1
sg1386
I1
sg509
I1
sg452
I1
sg1387
I1
sg468
I1
sg76
I1
sg1388
I1
sg1389
I1
sg77
I1
sg1390
I1
sg1378
I1
sg521
I1
sg1379
I1
sg1391
I1
sg1375
I1
sg1392
I1
sg456
I1
sg489
I1
sg497
I1
sg1393
I1
sg1394
I1
sg828
I1
sg1396
I1
sg1398
I1
ssg509
(dp1432
g77
I1
sg1376
I1
sg1378
I1
sg1379
I1
sg478
I1
sg1374
I1
sg497
I1
sg458
I1
sg1375
I1
sg499
I1
sg828
I1
sg509
I1
ssS'SysPwrNet'
p1433
(dp1434
g1414
I1
sg1416
I1
sg501
I1
sg454
I1
ssg468
(dp1435
g1387
I1
sg77
I1
sg1390
I1
sg1376
I1
sg1378
I1
sg1379
I1
sg478
I1
sg1374
I1
sg497
I1
sg458
I1
sg1375
I1
sg499
I1
sg828
I1
sg509
I1
ssg76
(dp1436
g1387
I1
sg468
I1
sg458
I1
sg77
I1
sg471
I1
sg1376
I1
sg1390
I1
sg1378
I1
sg1379
I1
sg1374
I1
sg509
I1
sg497
I1
sg76
I1
sg1375
I1
sg499
I1
sg828
I1
sg478
I1
ssg1388
(dp1437
g1387
I1
sg468
I1
sg77
I1
sg1390
I1
sg1378
I1
sg1379
I1
sg1376
I1
sg1374
I1
sg509
I1
sg497
I1
sg458
I1
sg1375
I1
sg499
I1
sg828
I1
sg478
I1
ssg77
(dp1438
g1379
I1
sg499
I1
ssS'SysPwrNetBranch'
p1439
(dp1440
g1414
I1
sg1433
I1
sg1416
I1
sg501
I1
sg454
I1
ssg521
(dp1441
g1392
I1
sg525
I1
sg501
I1
sg454
I1
ssg1396
(dp1442
g1398
I1
ssg1391
(dp1443
g77
I1
sg509
I1
sg1376
I1
sg1378
I1
sg1379
I1
sg1374
I1
sg489
I1
sg497
I1
sg458
I1
sg1375
I1
sg499
I1
sg828
I1
sg478
I1
ssg456
(dp1444
g1375
I1
sg499
I1
sg1374
I1
sg497
I1
sg458
I1
sg828
I1
ssS'System'
p1445
(dp1446
g1372
I1
sg1376
I1
sg525
I1
sg1381
I1
sg1384
I1
sg1374
I1
sg475
I1
sg448
I1
sg499
I1
sg441
I1
sg1386
I1
sg452
I1
sg1393
I1
sg1387
I1
sg1402
I1
sg516
I1
sg1389
I1
sg1390
I1
sg1378
I1
sg1414
I1
sg1404
I1
sg473
I1
sg1392
I1
sg489
I1
sg1394
I1
sg497
I1
sg1416
I1
sg1423
I1
sg478
I1
sg501
I1
sg471
I1
sg1403
I1
sg454
I1
sg1385
I1
sg458
I1
sg1397
I1
sg509
I1
sg1433
I1
sg1395
I1
sg468
I1
sg76
I1
sg1388
I1
sg77
I1
sg1439
I1
sg521
I1
sg1379
I1
sg1391
I1
sg456
I1
sg1383
I1
sS'SysEnetBranch'
p1447
I1
sg1375
I1
sg828
I1
sg1396
I1
sg1398
I1
ssg1383
(dp1448
g77
I1
sg1376
I1
sg1378
I1
sg1379
I1
sg478
I1
sg1374
I1
sg497
I1
sg458
I1
sg1375
I1
sg499
I1
sg828
I1
sg509
I1
ssg1447
(dp1449
g1402
I1
sg516
I1
sg77
I1
sg1378
I1
sg1403
I1
sg1379
I1
sg473
I1
sg1376
I1
sg1374
I1
sg509
I1
sg497
I1
sg458
I1
sg1404
I1
sg1375
I1
sg499
I1
sg828
I1
sg478
I1
ssg1375
(dp1450
g499
I1
sg1374
I1
sg497
I1
sg458
I1
sg828
I1
ssg828
(dp1451
g497
I1
sg499
I1
sssS'treeItems'
p1452
(iBag
Bag
p1453
(lp1454
(lp1455
g1372
ag1376
ag525
ag1381
ag1384
ag1374
ag1394
ag448
ag499
ag441
ag1386
ag452
ag1393
ag1387
ag1402
ag458
ag1389
ag1390
ag1378
ag1414
ag1404
ag473
ag1392
ag489
ag497
ag1416
ag1423
ag478
ag501
ag471
ag1403
ag454
ag1385
ag76
ag475
ag1397
ag509
ag1433
ag1395
ag468
ag516
ag1388
ag77
ag1439
ag521
ag1379
ag1391
ag456
ag1445
ag1383
ag1447
ag1375
ag828
ag1396
ag1398
aa(dp1456
g1372
(dp1457
S'delete'
p1458
(lsS'paste'
p1459
(lsS'showInSheet'
p1460
I0
sS'icon'
p1461
(dp1462
g64
S'comp_folder'
p1463
ssS'rename'
p1464
I0
sS'cutCopy'
p1465
(dssg1376
(dp1466
g1458
(lsg1459
(lsg1460
I0
sg1461
(dp1467
g64
S'pinpair_folder'
p1468
ssg1464
I0
sg1465
(dssg525
(dp1469
g1458
(lp1470
g1392
asg1459
(lp1471
g458
ag454
asg1460
I1
sg1461
(dp1472
g64
S'uncon_connector'
p1473
sS'connector'
p1474
S'pin_connector'
p1475
ssg1464
I1
sg1465
(dssg1381
(dp1476
g1458
(lp1477
g1445
asg1459
(lsg1460
I1
sg1461
(dp1478
g64
S'folder'
p1479
sS'currentDsn'
p1480
S'tree_curr_design'
p1481
ssg1464
I0
sg1465
(dssg1384
(dp1482
g1458
(lsg1459
(lsg1460
I0
sg1461
(dp1483
g64
S'bus_folder'
p1484
ssg1464
I0
sg1465
(dssg1374
(dp1485
g1458
(lsg1459
(lsg1460
I0
sg1461
(dp1486
g64
S'elem_folder'
p1487
ssg1464
I0
sg1465
(dssg475
(dp1488
g1458
(lsg1459
(lsg1460
I1
sg1461
(dp1489
g64
S'tree_sysDiffPair'
p1490
ssg1464
I1
sg1465
(dssg448
(dp1491
g1458
(lp1492
g1386
ag448
asg1459
(lp1493
g509
ag478
ag468
ag76
ag471
ag448
asg1460
I1
sg1461
(dp1494
g64
S'tree_skewGrp'
p1495
ssg1464
I1
sg1465
(dp1496
g1386
(dp1497
S'cut'
p1498
I0
sS'copy'
p1499
I1
ssg448
(dp1500
g1498
I1
sg1499
I1
ssssg499
(dp1501
g1458
(lsg1459
(lsg1460
I1
sg1461
(dp1502
S'blackboxV'
p1503
S'vpin_blackbox'
p1504
sS'biDirectAsDriverV'
p1505
S'vpin_bidir_out'
p1506
sS'biDirectional'
p1507
S'pin_bidir'
p1508
sS'receiver'
p1509
S'pin_receiver'
p1510
sS'bbBidirV'
p1511
S'vpin_cirmodel_bidir'
p1512
sS'triStateAsDriverV'
p1513
S'vpin_tri_driver'
p1514
sS'diodeV'
p1515
S'vdiode'
p1516
sS'notConnectedV'
p1517
S'vpin_nc'
p1518
sS'ublackbox'
p1519
S'pin_undef_blackbox'
p1520
sS'unConnConnectorV'
p1521
S'vuncon_connector'
p1522
sS'undefined'
p1523
S'pin_unknown'
p1524
sS'mixedPassive'
p1525
S'pin_def_passive'
p1526
sg64
g260
sS'receiverV'
p1527
S'vpin_receiver'
p1528
sS'smDriver'
p1529
S'pin_sermodel_driver'
p1530
sS'seriesModel'
p1531
S'pin_seriesmodel'
p1532
sS'bbBiAsDriverV'
p1533
S'vpin_cirmodel_bidir_driver'
p1534
sS'groundV'
p1535
S'vpin_gnd'
p1536
sS'powerV'
p1537
S'vpin_power'
p1538
sS'seriesModelV'
p1539
S'vpin_seriesmodel'
p1540
sS'ublackboxV'
p1541
S'vpin_undef_blackbox'
p1542
sS'capacitor'
p1543
g1543
sS'bbDriver'
p1544
S'pin_cirmodel_driver'
p1545
sS'driver'
p1546
S'pin_driver'
p1547
sS'capacitorV'
p1548
S'vcapacitor'
p1549
sS'biDirectionalV'
p1550
S'vpin_bidir'
p1551
sS'power'
p1552
S'pin_power'
p1553
sS'blackbox'
p1554
S'pin_blackbox'
p1555
sS'smTriAsDriver'
p1556
S'pin_sermodel_tri_driver'
p1557
sS'bbBidir'
p1558
S'pin_cirmodel_bidir'
p1559
sS'resistor'
p1560
g1560
sS'bbTristateV'
p1561
S'vpin_cirmodel_tri_high'
p1562
sS'notConnected'
p1563
S'pin_nc'
p1564
sS'connectorV'
p1565
S'vconnector'
p1566
sS'triStateV'
p1567
S'vpin_tri_high'
p1568
sS'triStateAsDriver'
p1569
S'pin_tri_driver'
p1570
sg1474
g1475
sS'bbTriAsDriverV'
p1571
S'vpin_cirmodel_tri_driver'
p1572
sS'biDirectAsDriver'
p1573
S'pin_bidir_out'
p1574
sS'diode'
p1575
g1575
sS'bbTriAsDriver'
p1576
S'pin_cirmodel_tri_driver'
p1577
sS'bbTristate'
p1578
S'pin_cirmodel_tri_high'
p1579
sS'smBidirV'
p1580
S'vpin_sermodel_bidir'
p1581
sS'smReceiverV'
p1582
S'vpin_sermodel_receiver'
p1583
sS'smTristate'
p1584
S'pin_sermodel_tri_high'
p1585
sS'resistorV'
p1586
S'vresistor'
p1587
sS'ground'
p1588
S'pin_gnd'
p1589
sS'bbBiAsDriver'
p1590
S'pin_cirmodel_bidir_driver'
p1591
sS'unConnConnector'
p1592
g1473
sS'smReceiver'
p1593
S'pin_sermodel_receiver'
p1594
sS'smBiAsDriverV'
p1595
S'vpin_sermodel_bidir_driver'
p1596
sS'seriesBox'
p1597
S'series_box'
p1598
sS'inductor'
p1599
g1599
sS'bbReceiverV'
p1600
S'vpin_cirmodel_receiver'
p1601
sS'bbDriverV'
p1602
S'vpin_cirmodel_driver'
p1603
sS'driverV'
p1604
S'vpin_driver'
p1605
sS'smTriAsDriverV'
p1606
S'vpin_sermodel_tri_driver'
p1607
sS'smBiAsDriver'
p1608
S'pin_sermodel_bidir_driver'
p1609
sS'smTristateV'
p1610
S'vpin_sermodel_tri_high'
p1611
sS'triState'
p1612
S'pin_tri_high'
p1613
sS'bbReceiver'
p1614
S'pin_cirmodel_receiver'
p1615
sS'smDriverV'
p1616
S'vpin_sermodel_driver'
p1617
sS'seriesBoxV'
p1618
S'vseries_box'
p1619
sS'inductorV'
p1620
S'vinductor'
p1621
sS'mixedPassiveV'
p1622
S'vpin_def_passive'
p1623
sS'undefinedV'
p1624
S'vpin_unknown'
p1625
sS'smBidir'
p1626
S'pin_sermodel_bidir'
p1627
ssg1464
I0
sg1465
(dssg441
(dp1628
g1458
(lp1629
g1389
asg1459
(lsg1460
I1
sg1461
(dp1630
g64
S'tree_power'
p1631
ssg1464
I0
sg1465
(dp1632
g1389
(dp1633
g1498
I0
sg1499
I0
ssssg1386
(dp1634
g1458
(lsg1459
(lsg1460
I0
sg1461
(dp1635
g64
S'skewGrp_folder'
p1636
ssg1464
I0
sg1465
(dssg452
(dp1637
g1458
(lp1638
g1381
ag1397
asg1459
(lsg1460
I1
sg1461
(dp1639
S'scenario'
p1640
S'scenario_folder'
p1641
sS'topo'
p1642
S'topo_folder'
p1643
sg64
g1479
sS'desVer'
p1644
S'tree_version'
p1645
sS'currentDVS'
p1646
S'tree_curr_version'
p1647
ssg1464
I1
sg1465
(dssg1393
(dp1648
g1458
(lsg1459
(lsg1460
I0
sg1461
(dp1649
g64
S'path_folder'
p1650
ssg1464
I0
sg1465
(dssg1387
(dp1651
g1458
(lp1652
g1390
asg1459
(lsg1460
I1
sg1461
(dp1653
g64
S'tree_netpair'
p1654
ssg1464
I0
sg1465
(dssg1402
(dp1655
g1458
(lsg1459
(lsg1460
I1
sg1461
(dp1656
g64
S'tree_enet'
p1657
ssg1464
I0
sg1465
(dssg516
(dp1658
g1458
(lsg1459
(lsg1460
I1
sg1461
(dp1659
g64
S'tree_pin_pair'
p1660
ssg1464
I0
sg1465
(dssg1389
(dp1661
g1458
(lsg1459
(lp1662
g77
asg1460
I0
sg1461
(dp1663
g64
S'power_folder'
p1664
ssg1464
I0
sg1465
(dssg1390
(dp1665
g1458
(lsg1459
(lsg1460
I0
sg1461
(dp1666
g64
S'netpair_folder'
p1667
ssg1464
I0
sg1465
(dssg1378
(dp1668
g1458
(lp1669
g1376
asg1459
(lsg1460
I1
sg1461
(dp1670
g64
g1660
ssg1464
I0
sg1465
(dssg1414
(dp1671
g1458
(lsg1459
(lsg1460
I0
sg1461
(dp1672
S'currentBoard'
p1673
S'tree_curr_instance'
p1674
sg64
S'tree_instance'
p1675
ssg1464
I0
sg1465
(dssg1404
(dp1676
g1458
(lsg1459
(lsg1460
I0
sg1461
(dp1677
g1673
g1674
sg64
g1675
ssg1464
I0
sg1465
(dssg473
(dp1678
g1458
(lsg1459
(lsg1460
I1
sg1461
(dp1679
g64
S'tree_sysEnet'
p1680
ssg1464
I1
sg1465
(dssg1392
(dp1681
g1458
(lsg1459
(lsg1460
I0
sg1461
(dp1682
g64
S'sysConnector_folder'
p1683
ssg1464
I0
sg1465
(dssg489
(dp1684
g1458
(lp1685
g1391
asg1459
(lp1686
g478
ag77
asg1460
I1
sg1461
(dp1687
S'empty'
p1688
S'tree_e_class'
p1689
sS'eNet'
p1690
S'tree_en_class'
p1691
sS'lNet'
p1692
S'tree_ln_class'
p1693
sg64
g1689
ssg1464
I1
sg1465
(dssg1394
(dp1694
g1458
(lsg1459
(lsg1460
I0
sg1461
(dp1695
g64
S'board_folder'
p1696
ssg1464
I0
sg1465
(dssg497
(dp1697
g1458
(lsg1459
(lsg1460
I1
sg1461
(dp1698
g1558
g1559
sg1560
g1560
sg1507
g1508
sg1509
g1510
sg1614
g1615
sg1608
g1609
sg1576
g1577
sg1569
g1570
sg1573
g1574
sg1575
g1575
sg1578
g1579
sg1519
g1520
sg1523
g1524
sg1525
g1526
sg64
g260
sg1584
g1585
sg1588
g1589
sg1529
g1530
sg1590
g1591
sg1593
g1594
sg1597
g1598
sg1599
g1599
sg1543
g1543
sg1531
g1532
sg1544
g1545
sg1592
g1473
sg1546
g1547
sg1552
g1553
sg1563
g1564
sg1612
g1613
sg1626
g1627
sg1554
g1555
sg1556
g1557
ssg1464
I0
sg1465
(dssg1416
(dp1699
g1458
(lsg1459
(lsg1460
I0
sg1461
(dp1700
g64
g1463
ssg1464
I0
sg1465
(dssg1423
(dp1701
g1458
(lsg1459
(lsg1460
I0
sg1461
(dp1702
g64
S'sysDiffPairBranch_folder'
p1703
ssg1464
I0
sg1465
(dssg478
(dp1704
g1458
(lp1705
g471
ag76
ag489
ag448
asg1459
(lp1706
g509
asg1460
I1
sg1461
(dp1707
S'singleNet'
p1708
g1657
sS'multiNet'
p1709
S'tree_enet_2'
p1710
sS'critNet'
p1711
S'tree_enet_critical'
p1712
sS'critMultiNet'
p1713
S'tree_enet_2_critical'
p1714
sg64
g1657
ssg1464
I0
sg1465
(dp1715
g468
(dp1716
g1498
I0
sg1499
I1
ssg76
(dp1717
g1498
I1
sg1499
I1
ssg489
(dp1718
g1498
I1
sg1499
I1
ssg471
(dp1719
g1498
I0
sg1499
I1
ssg448
(dp1720
g1498
I1
sg1499
I1
ssg1383
(dp1721
g1498
I0
sg1499
I1
ssg509
(dp1722
g1498
I0
sg1499
I1
ssssg501
(dp1723
g1458
(lsg1459
(lsg1460
I1
sg1461
(dp1724
g64
g1473
sg1474
g1475
ssg1464
I1
sg1465
(dssg471
(dp1725
g1458
(lp1726
g1393
ag76
ag448
asg1459
(lp1727
g509
asg1460
I1
sg1461
(dp1728
g64
S'tree_path'
p1729
ssg1464
I1
sg1465
(dp1730
g1393
(dp1731
g1498
I0
sg1499
I1
ssg76
(dp1732
g1498
I1
sg1499
I0
ssg448
(dp1733
g1498
I1
sg1499
I1
ssssg1403
(dp1734
g1458
(lsg1459
(lsg1460
I0
sg1461
(dp1735
g64
g1468
ssg1464
I0
sg1465
(dssg454
(dp1736
g1458
(lp1737
g525
asg1459
(lsg1460
I1
sg1461
(dp1738
g64
g1473
sg1474
g1475
ssg1464
I0
sg1465
(dp1739
g525
(dp1740
g1498
I1
sg1499
I0
ssssg1385
(dp1741
g1458
(lsg1459
(lp1742
g1395
asg1460
I0
sg1461
(dp1743
g64
S'stim_folder'
p1744
ssg1464
I0
sg1465
(dssg458
(dp1745
g1458
(lsg1459
(lsg1460
I1
sg1461
(dp1746
g1541
g1542
sg1560
g1560
sg1503
S'vblackbox'
p1747
sg1597
g1598
sg1565
g1566
sg1543
g1543
sg1474
g1475
sg1592
g1473
sS'virtual'
p1748
S'tree_vcomp'
p1749
sg1586
g1587
sg1575
g1575
sg1515
g1516
sg1519
g1520
sg1521
g1522
sg1620
g1621
sg1554
g1554
sg64
S'tree_comp'
p1750
sg1599
g1599
sg1548
g1549
sg1618
g1619
ssg1464
I0
sg1465
(dp1751
g1375
(dp1752
g1498
I0
sg1499
I1
ssssg1397
(dp1753
g1458
(lsg1459
(lsg1460
I0
sg1461
(dp1754
g64
g1479
sg1640
g1641
sg1642
g1643
ssg1464
I0
sg1465
(dssg509
(dp1755
g1458
(lp1756
g1376
ag448
ag478
ag468
ag76
asg1459
(lsg1460
I1
sg1461
(dp1757
g64
g1660
ssg1464
I0
sg1465
(dp1758
g468
(dp1759
g1498
I1
sg1499
I1
ssg448
(dp1760
g1498
I1
sg1499
I1
ssg478
(dp1761
g1498
I1
sg1499
I1
ssg76
(dp1762
g1498
I1
sg1499
I1
ssg1376
(dp1763
g1498
I0
sg1499
I1
ssssg1433
(dp1764
g1458
(lsg1459
(lsg1460
I1
sg1461
(dp1765
g64
S'tree_sysPower'
p1766
ssg1464
I0
sg1465
(dssg1395
(dp1767
g1458
(lp1768
g1385
asg1459
(lsg1460
I0
sg1461
(dp1769
g64
S'tree_stim'
p1770
ssg1464
I0
sg1465
(dp1771
g1385
(dp1772
g1498
I0
sg1499
I1
ssssg468
(dp1773
g1458
(lp1774
g1388
ag448
ag76
asg1459
(lp1775
g509
asg1460
I1
sg1461
(dp1776
g64
S'tree_diff_pair'
p1777
ssg1464
I0
sg1465
(dp1778
g1388
(dp1779
g1498
I0
sg1499
I1
ssg76
(dp1780
g1498
I1
sg1499
I1
ssg448
(dp1781
g1498
I1
sg1499
I1
ssssg76
(dp1782
g1458
(lp1783
g1384
ag448
ag76
asg1459
(lp1784
g478
ag471
ag468
ag76
ag509
asg1460
I1
sg1461
(dp1785
S'redBus'
p1786
S'tree_bus_red'
p1787
sg64
S'tree_bus'
p1788
ssg1464
I1
sg1465
(dp1789
g1384
(dp1790
g1498
I0
sg1499
I1
ssg76
(dp1791
g1498
I0
sg1499
I1
ssg448
(dp1792
g1498
I1
sg1499
I1
ssssg1388
(dp1793
g1458
(lsg1459
(lsg1460
I0
sg1461
(dp1794
g64
S'diff_pair_folder'
p1795
ssg1464
I0
sg1465
(dssg77
(dp1796
g1458
(lp1797
g489
asg1459
(lsg1460
I1
sg1461
(dp1798
g64
S'tree_net'
p1799
ssg1464
I0
sg1465
(dp1800
g478
(dp1801
g1498
I1
sg1499
I1
ssg489
(dp1802
g1498
I1
sg1499
I1
ssssg1439
(dp1803
g1458
(lsg1459
(lsg1460
I0
sg1461
(dp1804
g64
S'sysPower_folder'
p1805
ssg1464
I0
sg1465
(dssg521
(dp1806
g1458
(lp1807
g1394
asg1459
(lsg1460
I1
sg1461
(dp1808
g1673
g1674
sg64
g1675
ssg1464
I1
sg1465
(dssg1379
(dp1809
g1458
(lsg1459
(lsg1460
I1
sg1461
(dp1810
g64
S'tree_virtual_branch'
p1811
ssg1464
I1
sg1465
(dssg1391
(dp1812
g1458
(lsg1459
(lsg1460
I0
sg1461
(dp1813
g64
S'class_folder'
p1814
ssg1464
I0
sg1465
(dssg456
(dp1815
g1458
(lsg1459
(lsg1460
I1
sg1461
(dp1816
g1592
g1473
sg1560
g1560
sg1575
g1575
sg64
g1750
sg1597
g1598
sg1599
g1599
sg1543
g1543
sg1554
g1554
sg1519
g1520
ssg1464
I0
sg1465
(dssg1445
(dp1817
g1458
(lsg1459
(lsg1460
I0
sg1461
(dp1818
g64
S'tree_system'
p1819
ssg1464
I0
sg1465
(dssg1383
(dp1820
g1458
(lsg1459
(lsg1460
I0
sg1461
(dp1821
g64
S'enet_folder'
p1822
ssg1464
I0
sg1465
(dssg1447
(dp1823
g1458
(lsg1459
(lsg1460
I0
sg1461
(dp1824
g64
S'sysEnetBranch_folder'
p1825
ssg1464
I0
sg1465
(dssg1375
(dp1826
g1458
(lsg1459
(lsg1460
I0
sg1461
(dp1827
g64
g1463
ssg1464
I0
sg1465
(dssg828
(dp1828
g1458
(lsg1459
(lsg1460
I1
sg1461
(dp1829
g1541
g1542
sg1560
g1560
sg1503
g1747
sg1539
g1540
sg1597
g1598
sg1599
g1599
sg1543
g1543
sg1519
g1520
sg1531
g1532
sg1575
g1575
sg1515
g1516
sg1548
g1549
sg1618
g1619
sg1620
g1621
sg1554
g1555
sg64
g1520
sg1586
g1587
ssg1464
I0
sg1465
(dssg1396
(dp1830
g1458
(lsg1459
(lsg1460
I0
sg1461
(dp1831
g64
S'sim_folder'
p1832
ssg1464
I0
sg1465
(dssg1398
(dp1833
g1458
(lp1834
g1396
asg1459
(lsg1460
I0
sg1461
(dp1835
g64
S'tree_sim'
p1836
ssg1464
I0
sg1465
(dssabsS'childItems'
p1837
(iBag
Bag
p1838
(lp1839
(lp1840
g1372
ag1376
ag525
ag1381
ag1384
ag1374
ag475
ag448
ag441
ag1386
ag452
ag1387
ag458
ag1389
ag1390
ag1378
ag1414
ag1404
ag473
ag1392
ag489
ag1394
ag1416
ag1423
ag478
ag471
ag1403
ag454
ag1385
ag76
ag1397
ag509
ag1433
ag468
ag1388
ag77
ag1439
ag521
ag1396
ag1391
ag1375
ag456
ag1445
ag1383
ag1447
ag1393
ag828
aa(dp1841
g1372
(lp1842
g456
asg1376
(lp1843
g509
ag1378
asg525
(lp1844
g454
asg1381
(lp1845
g452
ag1397
ag1385
asg1384
(lp1846
g76
asg1374
(lp1847
g828
asg475
(lp1848
g473
asg448
(lp1849
g509
ag478
ag468
ag76
ag471
ag448
asg441
(lp1850
g499
ag1375
asg1386
(lp1851
g448
asg452
(lp1852
g1383
ag1393
ag1384
ag1389
ag1375
ag1396
ag1372
ag1386
ag1388
ag1391
ag1392
ag1394
asg1387
(lp1853
g77
asg1389
(lp1854
g441
asg1390
(lp1855
g1387
asg1378
(lp1856
g499
asg1414
(lp1857
g1416
ag501
asg1404
(lp1858
g478
ag1402
asg473
(lp1859
g1404
ag1403
asg1392
(lp1860
g525
asg489
(lp1861
g77
ag478
asg1394
(lp1862
g521
asg1416
(lp1863
g454
asg1423
(lp1864
g475
asg478
(lp1865
g77
ag1376
ag1375
ag509
asg471
(lp1866
g478
ag1376
ag1375
ag509
asg1403
(lp1867
g516
asg454
(lp1868
g501
asg1385
(lp1869
g1395
asg458
(lp1870
g499
ag1374
asg1397
(lp1871
g452
asg509
(lp1872
g499
ag1379
ag478
asg1433
(lp1873
g1414
asg468
(lp1874
g478
ag1390
ag1376
ag77
ag509
asg76
(lp1875
g471
ag478
ag468
ag76
ag509
asg1388
(lp1876
g468
asg77
(lp1877
g499
ag1379
asg1439
(lp1878
g1433
asg521
(lp1879
g1392
asg1396
(lp1880
g1398
asg1391
(lp1881
g489
asg1375
(lp1882
g458
asg456
(lp1883
g497
ag1375
ag1374
asg1445
(lp1884
g1381
ag1447
ag1439
ag1423
ag1396
ag1385
asg1383
(lp1885
g478
asg1447
(lp1886
g473
asg1393
(lp1887
g471
asg828
(lp1888
g499
ag497
asabssg16
(dp1889
g264
(dp1890
g209
S''
sg266
S''
sg267
S''
sg268
S''
sg269
S''
ssg270
(dp1891
g209
S''
sg266
S''
sg267
S''
sg268
S''
sg269
S''
ssg272
(dp1892
g209
S''
sg266
S''
sg267
S''
sg268
S''
sg269
S''
ssg274
(dp1893
g209
S''
sg266
S''
sg267
S''
sg268
S''
sg269
S''
ssg276
(dp1894
g209
S''
sg266
S''
sg267
S''
sg268
S''
sg269
S''
ssg278
(dp1895
g209
S''
sg266
S''
sg267
S''
sg268
S''
sg269
S''
ssg280
(dp1896
g209
S''
sg266
S''
sg267
S''
sg268
S''
sg269
S''
ssg282
(dp1897
g209
S''
sg266
S''
sg267
S''
sg268
S''
sg269
S''
sssg5
(dp1898
g25
g119
sg120
I1
sg121
(dp1899
g123
S'#91FF91'
sg124
S'#FFAF51'
sg125
S'#ff6464'
ssg126
(iBag
Bag
p1900
(lp1901
(lp1902
S'All Constraints'
p1903
ag130
aS'Distortion'
p1904
ag155
aS'Delay'
p1905
aS'Skew'
p1906
aS'Misc'
p1907
aS'Modeling'
p1908
aS'Lengthening'
p1909
aS'Multi-board'
p1910
aa(dp1911
g1904
(iBag
Bag
p1912
(lp1913
(lp1914
g134
ag133
aa(dp1915
g133
I0
sg134
(iBag
Bag
p1916
(lp1917
(lp1918
S'Max overshoot'
p1919
aS'Overshoot - 1st Rise'
p1920
aS'Overshoot Rise'
p1921
aS'Undershoot - 1st Rise'
p1922
aS'Undershoot Rise'
p1923
aS'Overshoot - 1st Fall'
p1924
aS'Overshoot Fall'
p1925
aS'Undershoot - 1st Fall'
p1926
aS'Undershoot Fall'
p1927
ag352
ag351
aa(dp1928
g1922
(dp1929
g133
I0
sg141
I0
sg142
I0
sg143
I5
sg144
g193
ssg1920
(dp1930
g133
I0
sg141
I0
sg142
I0
sg143
I5
sg144
g193
ssg1919
(dp1931
g133
I0
sg141
I0
sg142
I0
sg143
I0
sg144
g193
ssg1921
(dp1932
g133
I0
sg141
I0
sg142
I0
sg143
I5
sg144
g193
ssg1925
(dp1933
g133
I0
sg141
I0
sg142
I0
sg143
I5
sg144
g193
ssg352
(dp1934
g133
I0
sg141
I0
sg142
I0
sg143
I5
sg144
S''
ssg1924
(dp1935
g133
I0
sg141
I0
sg142
I0
sg143
I5
sg144
g193
ssg1927
(dp1936
g133
I0
sg141
I0
sg142
I0
sg143
I5
sg144
g193
ssg351
(dp1937
g133
I0
sg141
I0
sg142
I0
sg143
I5
sg144
S''
ssg1923
(dp1938
g133
I0
sg141
I0
sg142
I0
sg143
I5
sg144
g193
ssg1926
(dp1939
g133
I0
sg141
I0
sg142
I0
sg143
I5
sg144
g193
ssabsabsg1905
(iBag
Bag
p1940
(lp1941
(lp1942
g134
ag133
aa(dp1943
g133
I0
sg134
(iBag
Bag
p1944
(lp1945
(lp1946
S'Min delay (time)'
p1947
aS'Min Length (Len, const)'
p1948
aS'Max delay (time)'
p1949
aS'Max Length (Len, const)'
p1950
aS'Max skew (time, const)'
p1951
aS'Max skew (Len, const)'
p1952
aS'pin_length'
p1953
aS'Min relative delay (time, const)'
p1954
aS'Min relative delay (Len, const)'
p1955
aS'Max relative delay (time, const)'
p1956
aS'Max relative delay (Len, const)'
p1957
aS'Minimum delay Rise'
p1958
aS'Maximum delay Rise'
p1959
aS'Delay (Rising Edge)'
p1960
aS'Minimum delay Fall'
p1961
aS'Maximum delay Fall'
p1962
aS'Delay (Falling Edge)'
p1963
aS'Minimum Length(result)'
p1964
aS'Maximum Length(result)'
p1965
aS'Max skew (time, result)'
p1966
aS'Max skew (len, result)'
p1967
aS'Min relative delay (time, result)'
p1968
aS'Min relative delay (len, result)'
p1969
aS'Max relative delay (time, result)'
p1970
aS'Max relative delay (len, result)'
p1971
aS'Maximum Settled Rise'
p1972
aS'Maximum Settled Fall'
p1973
aa(dp1974
g1956
(dp1975
g133
I0
sg141
I0
sg142
I0
sg143
I2
sg144
g102
ssg1954
(dp1976
g133
I0
sg141
I0
sg142
I0
sg143
I2
sg144
g102
ssg1960
(dp1977
g133
I0
sg141
I0
sg142
I0
sg143
I2
sg144
g102
ssg1969
(dp1978
g133
I0
sg141
I0
sg142
I0
sg143
I5
sg144
g68
ssg1958
(dp1979
g133
I0
sg141
I0
sg142
I0
sg143
I2
sg144
g102
ssg1963
(dp1980
g133
I0
sg141
I0
sg142
I0
sg143
I2
sg144
g102
ssg1973
(dp1981
g133
I0
sg141
I0
sg142
I0
sg143
I2
sg144
g102
ssg1953
(dp1982
g133
I0
sg141
I0
sg142
I0
sg143
I5
sg144
g68
ssg1961
(dp1983
g133
I0
sg141
I0
sg142
I0
sg143
I2
sg144
g102
ssg1947
(dp1984
g133
I0
sg141
I0
sg142
I0
sg143
I2
sg144
g102
ssg1952
(dp1985
g133
I0
sg141
I0
sg142
I0
sg143
I0
sg144
g68
ssg1957
(dp1986
g133
I0
sg141
I0
sg142
I0
sg143
I5
sg144
g68
ssg1962
(dp1987
g133
I0
sg141
I0
sg142
I0
sg143
I2
sg144
g102
ssg1955
(dp1988
g133
I0
sg141
I0
sg142
I0
sg143
I0
sg144
g68
ssg1950
(dp1989
g133
I0
sg141
I0
sg142
I0
sg143
I0
sg144
g68
ssg1967
(dp1990
g133
I0
sg141
I0
sg142
I0
sg143
I5
sg144
g68
ssg1966
(dp1991
g133
I0
sg141
I0
sg142
I0
sg143
I2
sg144
g102
ssg1972
(dp1992
g133
I0
sg141
I0
sg142
I0
sg143
I2
sg144
g102
ssg1968
(dp1993
g133
I0
sg141
I0
sg142
I0
sg143
I2
sg144
g102
ssg1949
(dp1994
g133
I0
sg141
I0
sg142
I0
sg143
I2
sg144
g102
ssg1971
(dp1995
g133
I0
sg141
I0
sg142
I0
sg143
I5
sg144
g68
ssg1970
(dp1996
g133
I0
sg141
I0
sg142
I0
sg143
I2
sg144
g102
ssg1959
(dp1997
g133
I0
sg141
I0
sg142
I0
sg143
I2
sg144
g102
ssg1951
(dp1998
g133
I0
sg141
I0
sg142
I0
sg143
I2
sg144
g102
ssg1964
(dp1999
g133
I0
sg141
I0
sg142
I0
sg143
I5
sg144
g68
ssg1948
(dp2000
g133
I0
sg141
I0
sg142
I0
sg143
I0
sg144
g68
ssg1965
(dp2001
g133
I0
sg141
I0
sg142
I0
sg143
I5
sg144
g68
ssabsabsg1907
(iBag
Bag
p2002
(lp2003
(lp2004
g134
ag133
aa(dp2005
g133
I0
sg134
(iBag
Bag
p2006
(lp2007
(lp2008
g305
aS'Stub length'
p2009
aS'Max Pin Pair Vias'
p2010
aS'Max Pin Pair Vias (result)'
p2011
aS'Resonant Frequency'
p2012
aS'pin_branch'
p2013
aS'pin_order'
p2014
ag329
ag330
aS'E.F.'
p2015
aa(dp2016
g305
(dp2017
g133
I0
sg141
I0
sg142
I0
sg143
I0
sg144
S''
ssg2011
(dp2018
g133
I0
sg141
I0
sg142
I0
sg143
I0
sg144
S''
ssg2015
(dp2019
g133
I0
sg141
I0
sg142
I0
sg143
I1
sg144
S''
ssg2013
(dp2020
g133
I0
sg141
I0
sg142
I0
sg143
Nsg144
S''
ssg2012
(dp2021
g133
I0
sg141
I0
sg142
I0
sg143
I5
sg144
g181
ssg329
(dp2022
g133
I0
sg141
I0
sg142
I0
sg143
I0
sg144
S''
ssg2010
(dp2023
g133
I0
sg141
I0
sg142
I0
sg143
I0
sg144
S''
ssg2009
(dp2024
g133
I0
sg141
I0
sg142
I0
sg143
I0
sg144
g68
ssg330
(dp2025
g133
I0
sg141
I0
sg142
I0
sg143
I0
sg144
S''
ssg2014
(dp2026
g133
I0
sg141
I0
sg142
I0
sg143
I0
sg144
S''
ssabsabsg130
(iBag
Bag
p2027
(lp2028
(lp2029
g134
ag133
aa(dp2030
g133
I0
sg134
(iBag
Bag
p2031
(lp2032
(lp2033
S'Max crosstalk'
p2034
aS'Min RSS crosstalk'
p2035
aS'Max RSS crosstalk'
p2036
aS'Min simple x-talk'
p2037
aS'Max simple x-talk'
p2038
aS'Min x-talk Contribution'
p2039
aS'Max x-talk Contribution'
p2040
aa(dp2041
g2038
(dp2042
g133
I0
sg141
I0
sg142
I0
sg143
I5
sg144
g193
ssg2036
(dp2043
g133
I0
sg141
I0
sg142
I0
sg143
I5
sg144
g193
ssg2039
(dp2044
g133
I0
sg141
I0
sg142
I0
sg143
I5
sg144
g193
ssg2035
(dp2045
g133
I0
sg141
I0
sg142
I0
sg143
I5
sg144
g193
ssg2040
(dp2046
g133
I0
sg141
I0
sg142
I0
sg143
I5
sg144
g193
ssg2034
(dp2047
g133
I0
sg141
I0
sg142
I0
sg143
I0
sg144
g193
ssg2037
(dp2048
g133
I0
sg141
I0
sg142
I0
sg143
I5
sg144
g193
ssabsabsg1903
(iBag
Bag
p2049
(lp2050
(lp2051
g134
ag133
aa(dp2052
g133
I0
sg134
(iBag
Bag
p2053
(lp2054
(lp2055
g2034
ag1919
aS'Min char Z (const)'
p2056
aS'Max char Z (const)'
p2057
ag1947
ag1949
ag1951
ag1954
ag1956
ag1948
ag1950
ag1952
ag1955
ag1957
ag305
ag2009
ag2010
ag2013
ag2014
aa(dp2058
g305
(dp2059
g133
I0
sg141
I0
sg142
I0
sg143
I0
sg144
S''
ssg1956
(dp2060
g133
I0
sg141
I0
sg142
I0
sg143
I2
sg144
g102
ssg1951
(dp2061
g133
I0
sg141
I0
sg142
I0
sg143
I2
sg144
g102
ssg1954
(dp2062
g133
I0
sg141
I0
sg142
I0
sg143
I2
sg144
g102
ssg1955
(dp2063
g133
I0
sg141
I0
sg142
I0
sg143
I0
sg144
g68
ssg2056
(dp2064
g133
I0
sg141
I0
sg142
I0
sg143
I0
sg144
g169
ssg1949
(dp2065
g133
I0
sg141
I0
sg142
I0
sg143
I2
sg144
g102
ssg1957
(dp2066
g133
I0
sg141
I0
sg142
I0
sg143
I0
sg144
g68
ssg1952
(dp2067
g133
I0
sg141
I0
sg142
I0
sg143
I0
sg144
g68
ssg2034
(dp2068
g133
I0
sg141
I0
sg142
I0
sg143
I0
sg144
g193
ssg2057
(dp2069
g133
I0
sg141
I0
sg142
I0
sg143
I0
sg144
g169
ssg1948
(dp2070
g133
I0
sg141
I0
sg142
I0
sg143
I0
sg144
g68
ssg2013
(dp2071
g133
I0
sg141
I0
sg142
I0
sg143
Nsg144
S''
ssg1950
(dp2072
g133
I0
sg141
I0
sg142
I0
sg143
I0
sg144
g68
ssg2010
(dp2073
g133
I0
sg141
I0
sg142
I0
sg143
I0
sg144
S''
ssg2009
(dp2074
g133
I0
sg141
I0
sg142
I0
sg143
I0
sg144
g68
ssg1947
(dp2075
g133
I0
sg141
I0
sg142
I0
sg143
I2
sg144
g102
ssg2014
(dp2076
g133
I0
sg141
I0
sg142
I0
sg143
I0
sg144
S''
ssg1919
(dp2077
g133
I0
sg141
I0
sg142
I0
sg143
I0
sg144
g193
ssabsabsg155
(iBag
Bag
p2078
(lp2079
(lp2080
g134
ag133
aa(dp2081
g133
I0
sg134
(iBag
Bag
p2082
(lp2083
(lp2084
g333
ag2056
ag2057
aS'Min char Z (Result)'
p2085
aS'Max char Z (Result)'
p2086
aS'Min common Z (Result)'
p2087
aS'Max common Z (Result)'
p2088
aS'Min diff Z (Result)'
p2089
aS'Max diff Z (Result)'
p2090
aS'Min even Z (Result)'
p2091
aS'Max even Z (Result)'
p2092
aS'Min odd Z (Result)'
p2093
aS'Max odd Z (Result)'
p2094
aS'Min track width'
p2095
aS'Max track width'
p2096
aa(dp2097
g333
(dp2098
g133
I0
sg141
I0
sg142
I0
sg143
I0
sg144
S''
ssg2086
(dp2099
g133
I0
sg141
I0
sg142
I0
sg143
I0
sg144
g170
ssg2090
(dp2100
g133
I0
sg141
I0
sg142
I0
sg143
I0
sg144
g170
ssg2094
(dp2101
g133
I0
sg141
I0
sg142
I0
sg143
I0
sg144
g170
ssg2056
(dp2102
g133
I0
sg141
I0
sg142
I0
sg143
I0
sg144
g170
ssg2091
(dp2103
g133
I0
sg141
I0
sg142
I0
sg143
I0
sg144
g170
ssg2088
(dp2104
g133
I0
sg141
I0
sg142
I0
sg143
I0
sg144
g170
ssg2057
(dp2105
g133
I0
sg141
I0
sg142
I0
sg143
I0
sg144
g170
ssg2089
(dp2106
g133
I0
sg141
I0
sg142
I0
sg143
I0
sg144
g170
ssg2087
(dp2107
g133
I0
sg141
I0
sg142
I0
sg143
I0
sg144
g170
ssg2093
(dp2108
g133
I0
sg141
I0
sg142
I0
sg143
I0
sg144
g170
ssg2095
(dp2109
g133
I0
sg141
I0
sg142
I0
sg143
I0
sg144
g68
ssg2085
(dp2110
g133
I0
sg141
I0
sg142
I0
sg143
I0
sg144
g170
ssg2092
(dp2111
g133
I0
sg141
I0
sg142
I0
sg143
I0
sg144
g170
ssg2096
(dp2112
g133
I0
sg141
I0
sg142
I0
sg143
I0
sg144
g68
ssabsabsg1909
(iBag
Bag
p2113
(lp2114
(lp2115
g134
ag133
aa(dp2116
g133
I0
sg134
(iBag
Bag
p2117
(lp2118
(lp2119
S'lengthen_mode'
p2120
aS'lengthen_style'
p2121
aS'lengthen_size'
p2122
aS'lengthen_space'
p2123
aa(dp2124
g2122
(dp2125
g133
I0
sg141
I0
sg142
I0
sg143
I5
sg144
S''
ssg2123
(dp2126
g133
I0
sg141
I0
sg142
I0
sg143
I5
sg144
S''
ssg2120
(dp2127
g133
I0
sg141
I0
sg142
I0
sg143
I0
sg144
S''
ssg2121
(dp2128
g133
I0
sg141
I0
sg142
I0
sg143
I0
sg144
S''
ssabsabsg1906
(iBag
Bag
p2129
(lp2130
(lp2131
g134
ag133
aa(dp2132
g133
I0
sg134
(iBag
Bag
p2133
(lp2134
(lp2135
g1951
ag1954
ag1956
ag1952
ag1955
ag1957
ag1966
ag1968
ag1970
ag1967
ag1969
ag1971
aa(dp2136
g1956
(dp2137
g133
I0
sg141
I0
sg142
I0
sg143
I2
sg144
g102
ssg1954
(dp2138
g133
I0
sg141
I0
sg142
I0
sg143
I2
sg144
g102
ssg1955
(dp2139
g133
I0
sg141
I0
sg142
I0
sg143
I0
sg144
g68
ssg1969
(dp2140
g133
I0
sg141
I0
sg142
I0
sg143
I5
sg144
g68
ssg1967
(dp2141
g133
I0
sg141
I0
sg142
I0
sg143
I5
sg144
g68
ssg1966
(dp2142
g133
I0
sg141
I0
sg142
I0
sg143
I2
sg144
g102
ssg1952
(dp2143
g133
I0
sg141
I0
sg142
I0
sg143
I0
sg144
g68
ssg1968
(dp2144
g133
I0
sg141
I0
sg142
I0
sg143
I2
sg144
g102
ssg1970
(dp2145
g133
I0
sg141
I0
sg142
I0
sg143
I2
sg144
g102
ssg1971
(dp2146
g133
I0
sg141
I0
sg142
I0
sg143
I5
sg144
g68
ssg1951
(dp2147
g133
I0
sg141
I0
sg142
I0
sg143
I2
sg144
g102
ssg1957
(dp2148
g133
I0
sg141
I0
sg142
I0
sg143
I0
sg144
g68
ssabsabsg1910
(iBag
Bag
p2149
(lp2150
(lp2151
g134
ag133
aa(dp2152
g133
I0
sg134
(iBag
Bag
p2153
(lp2154
(lp2155
g324
ag325
ag326
ag327
ag329
ag328
ag330
aa(dp2156
g329
(dp2157
g133
I0
sg141
I0
sg142
I0
sg143
I0
sg144
S''
ssg326
(dp2158
g133
I0
sg141
I0
sg142
I0
sg143
I0
sg144
S''
ssg327
(dp2159
g133
I0
sg141
I0
sg142
I0
sg143
I0
sg144
S''
ssg324
(dp2160
g133
I0
sg141
I0
sg142
I0
sg143
I0
sg144
S''
ssg328
(dp2161
g133
I0
sg141
I0
sg142
I0
sg143
I0
sg144
S''
ssg330
(dp2162
g133
I0
sg141
I0
sg142
I0
sg143
I0
sg144
S''
ssg325
(dp2163
g133
I0
sg141
I0
sg142
I0
sg143
I0
sg144
S''
ssabsabsg1908
(iBag
Bag
p2164
(lp2165
(lp2166
g134
ag133
aa(dp2167
g133
I0
sg134
(iBag
Bag
p2168
(lp2169
(lp2170
g313
ag314
aS'Input Model'
p2171
aS'Output Model'
p2172
aS'Connective Model'
p2173
ag335
ag336
aS'No. of Pins'
p2174
ag320
aS'Part Name'
p2175
ag310
ag159
ag157
ag334
ag321
ag311
ag1953
aa(dp2176
g311
(dp2177
g133
I0
sg141
I0
sg142
I0
sg143
I0
sg144
S'V'
ssg159
(dp2178
g133
I0
sg141
I0
sg142
I0
sg143
Nsg144
g167
ssg320
(dp2179
g133
I0
sg141
I0
sg142
I0
sg143
I0
sg144
S''
ssg2173
(dp2180
g133
I0
sg141
I0
sg142
I0
sg143
I0
sg144
S''
ssg314
(dp2181
g133
I0
sg141
I0
sg142
I0
sg143
I0
sg144
S''
ssg2171
(dp2182
g133
I0
sg141
I0
sg142
I0
sg143
I0
sg144
S''
ssg2174
(dp2183
g133
I0
sg141
I0
sg142
I0
sg143
I0
sg144
S''
ssg157
(dp2184
g133
I0
sg141
I0
sg142
I0
sg143
Nsg144
g178
ssg334
(dp2185
g133
I0
sg141
I0
sg142
I0
sg143
I0
sg144
S''
ssg310
(dp2186
g133
I0
sg141
I0
sg142
I0
sg143
Nsg144
g169
ssg335
(dp2187
g133
I0
sg141
I0
sg142
I0
sg143
I0
sg144
S''
ssg2172
(dp2188
g133
I0
sg141
I0
sg142
I0
sg143
I0
sg144
S''
ssg1953
(dp2189
g133
I0
sg141
I0
sg142
I0
sg143
I5
sg144
g68
ssg2175
(dp2190
g133
I0
sg141
I0
sg142
I0
sg143
I0
sg144
S''
ssg321
(dp2191
g133
I0
sg141
I0
sg142
I0
sg143
I0
sg144
S''
ssg313
(dp2192
g133
I0
sg141
I0
sg142
I0
sg143
I0
sg144
S''
ssg336
(dp2193
g133
I0
sg141
I0
sg142
I0
sg143
I0
sg144
S''
ssabsabsabssab.